
MicroDrone.elf:     file format elf32-avr

Sections:
Idx Name          Size      VMA       LMA       File off  Algn
  0 .data         000000e2  00800100  00002366  000023fa  2**0
                  CONTENTS, ALLOC, LOAD, DATA
  1 .text         00002366  00000000  00000000  00000094  2**1
                  CONTENTS, ALLOC, LOAD, READONLY, CODE
  2 .bss          000000c6  008001e2  008001e2  000024dc  2**0
                  ALLOC
  3 .comment      00000011  00000000  00000000  000024dc  2**0
                  CONTENTS, READONLY
  4 .note.gnu.avr.deviceinfo 00000040  00000000  00000000  000024f0  2**2
                  CONTENTS, READONLY
  5 .debug_info   000005f4  00000000  00000000  00002530  2**0
                  CONTENTS, READONLY, DEBUGGING
  6 .debug_abbrev 000005a2  00000000  00000000  00002b24  2**0
                  CONTENTS, READONLY, DEBUGGING
  7 .debug_line   0000001d  00000000  00000000  000030c6  2**0
                  CONTENTS, READONLY, DEBUGGING
  8 .debug_str    00000208  00000000  00000000  000030e3  2**0
                  CONTENTS, READONLY, DEBUGGING

Disassembly of section .text:

00000000 <__vectors>:
       0:	0c 94 34 00 	jmp	0x68	; 0x68 <__ctors_end>
       4:	0c 94 51 00 	jmp	0xa2	; 0xa2 <__bad_interrupt>
       8:	0c 94 51 00 	jmp	0xa2	; 0xa2 <__bad_interrupt>
       c:	0c 94 8c 0d 	jmp	0x1b18	; 0x1b18 <__vector_3>
      10:	0c 94 51 00 	jmp	0xa2	; 0xa2 <__bad_interrupt>
      14:	0c 94 e4 0c 	jmp	0x19c8	; 0x19c8 <__vector_5>
      18:	0c 94 51 00 	jmp	0xa2	; 0xa2 <__bad_interrupt>
      1c:	0c 94 51 00 	jmp	0xa2	; 0xa2 <__bad_interrupt>
      20:	0c 94 51 00 	jmp	0xa2	; 0xa2 <__bad_interrupt>
      24:	0c 94 51 00 	jmp	0xa2	; 0xa2 <__bad_interrupt>
      28:	0c 94 51 00 	jmp	0xa2	; 0xa2 <__bad_interrupt>
      2c:	0c 94 51 00 	jmp	0xa2	; 0xa2 <__bad_interrupt>
      30:	0c 94 51 00 	jmp	0xa2	; 0xa2 <__bad_interrupt>
      34:	0c 94 51 00 	jmp	0xa2	; 0xa2 <__bad_interrupt>
      38:	0c 94 51 00 	jmp	0xa2	; 0xa2 <__bad_interrupt>
      3c:	0c 94 51 00 	jmp	0xa2	; 0xa2 <__bad_interrupt>
      40:	0c 94 ff 0d 	jmp	0x1bfe	; 0x1bfe <__vector_16>
      44:	0c 94 51 00 	jmp	0xa2	; 0xa2 <__bad_interrupt>
      48:	0c 94 51 00 	jmp	0xa2	; 0xa2 <__bad_interrupt>
      4c:	0c 94 51 00 	jmp	0xa2	; 0xa2 <__bad_interrupt>
      50:	0c 94 51 00 	jmp	0xa2	; 0xa2 <__bad_interrupt>
      54:	0c 94 51 00 	jmp	0xa2	; 0xa2 <__bad_interrupt>
      58:	0c 94 51 00 	jmp	0xa2	; 0xa2 <__bad_interrupt>
      5c:	0c 94 51 00 	jmp	0xa2	; 0xa2 <__bad_interrupt>
      60:	0c 94 51 00 	jmp	0xa2	; 0xa2 <__bad_interrupt>
      64:	0c 94 51 00 	jmp	0xa2	; 0xa2 <__bad_interrupt>

00000068 <__ctors_end>:
      68:	11 24       	eor	r1, r1
      6a:	1f be       	out	0x3f, r1	; 63
      6c:	cf ef       	ldi	r28, 0xFF	; 255
      6e:	d8 e0       	ldi	r29, 0x08	; 8
      70:	de bf       	out	0x3e, r29	; 62
      72:	cd bf       	out	0x3d, r28	; 61

00000074 <__do_copy_data>:
      74:	11 e0       	ldi	r17, 0x01	; 1
      76:	a0 e0       	ldi	r26, 0x00	; 0
      78:	b1 e0       	ldi	r27, 0x01	; 1
      7a:	e6 e6       	ldi	r30, 0x66	; 102
      7c:	f3 e2       	ldi	r31, 0x23	; 35
      7e:	02 c0       	rjmp	.+4      	; 0x84 <__do_copy_data+0x10>
      80:	05 90       	lpm	r0, Z+
      82:	0d 92       	st	X+, r0
      84:	a2 3e       	cpi	r26, 0xE2	; 226
      86:	b1 07       	cpc	r27, r17
      88:	d9 f7       	brne	.-10     	; 0x80 <__do_copy_data+0xc>

0000008a <__do_clear_bss>:
      8a:	22 e0       	ldi	r18, 0x02	; 2
      8c:	a2 ee       	ldi	r26, 0xE2	; 226
      8e:	b1 e0       	ldi	r27, 0x01	; 1
      90:	01 c0       	rjmp	.+2      	; 0x94 <.do_clear_bss_start>

00000092 <.do_clear_bss_loop>:
      92:	1d 92       	st	X+, r1

00000094 <.do_clear_bss_start>:
      94:	a8 3a       	cpi	r26, 0xA8	; 168
      96:	b2 07       	cpc	r27, r18
      98:	e1 f7       	brne	.-8      	; 0x92 <.do_clear_bss_loop>
      9a:	0e 94 7e 06 	call	0xcfc	; 0xcfc <main>
      9e:	0c 94 b1 11 	jmp	0x2362	; 0x2362 <_exit>

000000a2 <__bad_interrupt>:
      a2:	0c 94 00 00 	jmp	0	; 0x0 <__vectors>

000000a6 <adc_init>:
      a6:	97 b1       	in	r25, 0x07	; 7
      a8:	21 e0       	ldi	r18, 0x01	; 1
      aa:	30 e0       	ldi	r19, 0x00	; 0
      ac:	08 2e       	mov	r0, r24
      ae:	02 c0       	rjmp	.+4      	; 0xb4 <adc_init+0xe>
      b0:	22 0f       	add	r18, r18
      b2:	33 1f       	adc	r19, r19
      b4:	0a 94       	dec	r0
      b6:	e2 f7       	brpl	.-8      	; 0xb0 <adc_init+0xa>
      b8:	20 95       	com	r18
      ba:	92 23       	and	r25, r18
      bc:	97 b9       	out	0x07, r25	; 7
      be:	98 b1       	in	r25, 0x08	; 8
      c0:	29 23       	and	r18, r25
      c2:	28 b9       	out	0x08, r18	; 8
      c4:	8f 70       	andi	r24, 0x0F	; 15
      c6:	80 64       	ori	r24, 0x40	; 64
      c8:	80 93 7c 00 	sts	0x007C, r24	; 0x80007c <__TEXT_REGION_LENGTH__+0x7e007c>
      cc:	66 23       	and	r22, r22
      ce:	59 f0       	breq	.+22     	; 0xe6 <adc_init+0x40>
      d0:	ea e7       	ldi	r30, 0x7A	; 122
      d2:	f0 e0       	ldi	r31, 0x00	; 0
      d4:	80 81       	ld	r24, Z
      d6:	88 60       	ori	r24, 0x08	; 8
      d8:	80 83       	st	Z, r24
      da:	ea e7       	ldi	r30, 0x7A	; 122
      dc:	f0 e0       	ldi	r31, 0x00	; 0
      de:	80 81       	ld	r24, Z
      e0:	87 69       	ori	r24, 0x97	; 151
      e2:	80 83       	st	Z, r24
      e4:	08 95       	ret
      e6:	ea e7       	ldi	r30, 0x7A	; 122
      e8:	f0 e0       	ldi	r31, 0x00	; 0
      ea:	80 81       	ld	r24, Z
      ec:	87 7f       	andi	r24, 0xF7	; 247
      ee:	80 83       	st	Z, r24
      f0:	f4 cf       	rjmp	.-24     	; 0xda <adc_init+0x34>

000000f2 <adc_read>:
      f2:	ea e7       	ldi	r30, 0x7A	; 122
      f4:	f0 e0       	ldi	r31, 0x00	; 0
      f6:	80 81       	ld	r24, Z
      f8:	86 fd       	sbrc	r24, 6
      fa:	fd cf       	rjmp	.-6      	; 0xf6 <adc_read+0x4>
      fc:	ea e7       	ldi	r30, 0x7A	; 122
      fe:	f0 e0       	ldi	r31, 0x00	; 0
     100:	80 81       	ld	r24, Z
     102:	80 65       	ori	r24, 0x50	; 80
     104:	80 83       	st	Z, r24
     106:	80 81       	ld	r24, Z
     108:	86 fd       	sbrc	r24, 6
     10a:	fd cf       	rjmp	.-6      	; 0x106 <adc_read+0x14>
     10c:	80 91 78 00 	lds	r24, 0x0078	; 0x800078 <__TEXT_REGION_LENGTH__+0x7e0078>
     110:	90 91 79 00 	lds	r25, 0x0079	; 0x800079 <__TEXT_REGION_LENGTH__+0x7e0079>
     114:	08 95       	ret

00000116 <adc_read8>:
     116:	ea e7       	ldi	r30, 0x7A	; 122
     118:	f0 e0       	ldi	r31, 0x00	; 0
     11a:	80 81       	ld	r24, Z
     11c:	86 fd       	sbrc	r24, 6
     11e:	fd cf       	rjmp	.-6      	; 0x11a <adc_read8+0x4>
     120:	ea e7       	ldi	r30, 0x7A	; 122
     122:	f0 e0       	ldi	r31, 0x00	; 0
     124:	80 81       	ld	r24, Z
     126:	80 64       	ori	r24, 0x40	; 64
     128:	80 83       	st	Z, r24
     12a:	80 81       	ld	r24, Z
     12c:	86 fd       	sbrc	r24, 6
     12e:	fd cf       	rjmp	.-6      	; 0x12a <adc_read8+0x14>
     130:	80 91 78 00 	lds	r24, 0x0078	; 0x800078 <__TEXT_REGION_LENGTH__+0x7e0078>
     134:	90 91 79 00 	lds	r25, 0x0079	; 0x800079 <__TEXT_REGION_LENGTH__+0x7e0079>
     138:	96 95       	lsr	r25
     13a:	87 95       	ror	r24
     13c:	96 95       	lsr	r25
     13e:	87 95       	ror	r24
     140:	08 95       	ret

00000142 <adc_change_channel>:
     142:	97 b1       	in	r25, 0x07	; 7
     144:	21 e0       	ldi	r18, 0x01	; 1
     146:	30 e0       	ldi	r19, 0x00	; 0
     148:	08 2e       	mov	r0, r24
     14a:	02 c0       	rjmp	.+4      	; 0x150 <adc_change_channel+0xe>
     14c:	22 0f       	add	r18, r18
     14e:	33 1f       	adc	r19, r19
     150:	0a 94       	dec	r0
     152:	e2 f7       	brpl	.-8      	; 0x14c <adc_change_channel+0xa>
     154:	20 95       	com	r18
     156:	92 23       	and	r25, r18
     158:	97 b9       	out	0x07, r25	; 7
     15a:	98 b1       	in	r25, 0x08	; 8
     15c:	29 23       	and	r18, r25
     15e:	28 b9       	out	0x08, r18	; 8
     160:	ea e7       	ldi	r30, 0x7A	; 122
     162:	f0 e0       	ldi	r31, 0x00	; 0
     164:	90 81       	ld	r25, Z
     166:	96 fd       	sbrc	r25, 6
     168:	fd cf       	rjmp	.-6      	; 0x164 <adc_change_channel+0x22>
     16a:	ec e7       	ldi	r30, 0x7C	; 124
     16c:	f0 e0       	ldi	r31, 0x00	; 0
     16e:	90 81       	ld	r25, Z
     170:	90 7f       	andi	r25, 0xF0	; 240
     172:	90 83       	st	Z, r25
     174:	90 81       	ld	r25, Z
     176:	8f 70       	andi	r24, 0x0F	; 15
     178:	89 2b       	or	r24, r25
     17a:	80 83       	st	Z, r24
     17c:	08 95       	ret

0000017e <i2c_init>:
     17e:	10 92 b9 00 	sts	0x00B9, r1	; 0x8000b9 <__TEXT_REGION_LENGTH__+0x7e00b9>
     182:	8c e0       	ldi	r24, 0x0C	; 12
     184:	80 93 b8 00 	sts	0x00B8, r24	; 0x8000b8 <__TEXT_REGION_LENGTH__+0x7e00b8>
     188:	08 95       	ret

0000018a <i2c_start>:
     18a:	94 ea       	ldi	r25, 0xA4	; 164
     18c:	90 93 bc 00 	sts	0x00BC, r25	; 0x8000bc <__TEXT_REGION_LENGTH__+0x7e00bc>
     190:	ec eb       	ldi	r30, 0xBC	; 188
     192:	f0 e0       	ldi	r31, 0x00	; 0
     194:	90 81       	ld	r25, Z
     196:	99 23       	and	r25, r25
     198:	ec f7       	brge	.-6      	; 0x194 <i2c_start+0xa>
     19a:	90 91 b9 00 	lds	r25, 0x00B9	; 0x8000b9 <__TEXT_REGION_LENGTH__+0x7e00b9>
     19e:	98 7f       	andi	r25, 0xF8	; 248
     1a0:	98 30       	cpi	r25, 0x08	; 8
     1a2:	11 f0       	breq	.+4      	; 0x1a8 <i2c_start+0x1e>
     1a4:	90 31       	cpi	r25, 0x10	; 16
     1a6:	a9 f4       	brne	.+42     	; 0x1d2 <i2c_start+0x48>
     1a8:	80 93 bb 00 	sts	0x00BB, r24	; 0x8000bb <__TEXT_REGION_LENGTH__+0x7e00bb>
     1ac:	84 e8       	ldi	r24, 0x84	; 132
     1ae:	80 93 bc 00 	sts	0x00BC, r24	; 0x8000bc <__TEXT_REGION_LENGTH__+0x7e00bc>
     1b2:	ec eb       	ldi	r30, 0xBC	; 188
     1b4:	f0 e0       	ldi	r31, 0x00	; 0
     1b6:	80 81       	ld	r24, Z
     1b8:	88 23       	and	r24, r24
     1ba:	ec f7       	brge	.-6      	; 0x1b6 <i2c_start+0x2c>
     1bc:	90 91 b9 00 	lds	r25, 0x00B9	; 0x8000b9 <__TEXT_REGION_LENGTH__+0x7e00b9>
     1c0:	98 7f       	andi	r25, 0xF8	; 248
     1c2:	98 31       	cpi	r25, 0x18	; 24
     1c4:	41 f0       	breq	.+16     	; 0x1d6 <i2c_start+0x4c>
     1c6:	81 e0       	ldi	r24, 0x01	; 1
     1c8:	90 34       	cpi	r25, 0x40	; 64
     1ca:	09 f0       	breq	.+2      	; 0x1ce <i2c_start+0x44>
     1cc:	08 95       	ret
     1ce:	80 e0       	ldi	r24, 0x00	; 0
     1d0:	08 95       	ret
     1d2:	81 e0       	ldi	r24, 0x01	; 1
     1d4:	08 95       	ret
     1d6:	80 e0       	ldi	r24, 0x00	; 0
     1d8:	f9 cf       	rjmp	.-14     	; 0x1cc <i2c_start+0x42>

000001da <i2c_start_wait>:
     1da:	cf 93       	push	r28
     1dc:	df 93       	push	r29
     1de:	ec eb       	ldi	r30, 0xBC	; 188
     1e0:	f0 e0       	ldi	r31, 0x00	; 0
     1e2:	24 ea       	ldi	r18, 0xA4	; 164
     1e4:	a9 eb       	ldi	r26, 0xB9	; 185
     1e6:	b0 e0       	ldi	r27, 0x00	; 0
     1e8:	cb eb       	ldi	r28, 0xBB	; 187
     1ea:	d0 e0       	ldi	r29, 0x00	; 0
     1ec:	34 e8       	ldi	r19, 0x84	; 132
     1ee:	44 e9       	ldi	r20, 0x94	; 148
     1f0:	20 83       	st	Z, r18
     1f2:	90 81       	ld	r25, Z
     1f4:	99 23       	and	r25, r25
     1f6:	ec f7       	brge	.-6      	; 0x1f2 <i2c_start_wait+0x18>
     1f8:	9c 91       	ld	r25, X
     1fa:	98 7f       	andi	r25, 0xF8	; 248
     1fc:	98 30       	cpi	r25, 0x08	; 8
     1fe:	11 f0       	breq	.+4      	; 0x204 <i2c_start_wait+0x2a>
     200:	90 31       	cpi	r25, 0x10	; 16
     202:	b1 f7       	brne	.-20     	; 0x1f0 <i2c_start_wait+0x16>
     204:	88 83       	st	Y, r24
     206:	30 83       	st	Z, r19
     208:	90 81       	ld	r25, Z
     20a:	99 23       	and	r25, r25
     20c:	ec f7       	brge	.-6      	; 0x208 <i2c_start_wait+0x2e>
     20e:	9c 91       	ld	r25, X
     210:	98 7f       	andi	r25, 0xF8	; 248
     212:	90 32       	cpi	r25, 0x20	; 32
     214:	29 f0       	breq	.+10     	; 0x220 <i2c_start_wait+0x46>
     216:	98 35       	cpi	r25, 0x58	; 88
     218:	19 f0       	breq	.+6      	; 0x220 <i2c_start_wait+0x46>
     21a:	df 91       	pop	r29
     21c:	cf 91       	pop	r28
     21e:	08 95       	ret
     220:	40 83       	st	Z, r20
     222:	90 81       	ld	r25, Z
     224:	94 fd       	sbrc	r25, 4
     226:	fd cf       	rjmp	.-6      	; 0x222 <i2c_start_wait+0x48>
     228:	e3 cf       	rjmp	.-58     	; 0x1f0 <i2c_start_wait+0x16>

0000022a <i2c_rep_start>:
     22a:	0e 94 c5 00 	call	0x18a	; 0x18a <i2c_start>
     22e:	08 95       	ret

00000230 <i2c_stop>:
     230:	84 e9       	ldi	r24, 0x94	; 148
     232:	80 93 bc 00 	sts	0x00BC, r24	; 0x8000bc <__TEXT_REGION_LENGTH__+0x7e00bc>
     236:	ec eb       	ldi	r30, 0xBC	; 188
     238:	f0 e0       	ldi	r31, 0x00	; 0
     23a:	80 81       	ld	r24, Z
     23c:	84 fd       	sbrc	r24, 4
     23e:	fd cf       	rjmp	.-6      	; 0x23a <i2c_stop+0xa>
     240:	08 95       	ret

00000242 <i2c_write>:
     242:	80 93 bb 00 	sts	0x00BB, r24	; 0x8000bb <__TEXT_REGION_LENGTH__+0x7e00bb>
     246:	84 e8       	ldi	r24, 0x84	; 132
     248:	80 93 bc 00 	sts	0x00BC, r24	; 0x8000bc <__TEXT_REGION_LENGTH__+0x7e00bc>
     24c:	ec eb       	ldi	r30, 0xBC	; 188
     24e:	f0 e0       	ldi	r31, 0x00	; 0
     250:	80 81       	ld	r24, Z
     252:	88 23       	and	r24, r24
     254:	ec f7       	brge	.-6      	; 0x250 <i2c_write+0xe>
     256:	90 91 b9 00 	lds	r25, 0x00B9	; 0x8000b9 <__TEXT_REGION_LENGTH__+0x7e00b9>
     25a:	98 7f       	andi	r25, 0xF8	; 248
     25c:	81 e0       	ldi	r24, 0x01	; 1
     25e:	98 32       	cpi	r25, 0x28	; 40
     260:	09 f0       	breq	.+2      	; 0x264 <i2c_write+0x22>
     262:	08 95       	ret
     264:	80 e0       	ldi	r24, 0x00	; 0
     266:	fd cf       	rjmp	.-6      	; 0x262 <i2c_write+0x20>

00000268 <i2c_readAck>:
     268:	84 ec       	ldi	r24, 0xC4	; 196
     26a:	80 93 bc 00 	sts	0x00BC, r24	; 0x8000bc <__TEXT_REGION_LENGTH__+0x7e00bc>
     26e:	ec eb       	ldi	r30, 0xBC	; 188
     270:	f0 e0       	ldi	r31, 0x00	; 0
     272:	80 81       	ld	r24, Z
     274:	88 23       	and	r24, r24
     276:	ec f7       	brge	.-6      	; 0x272 <i2c_readAck+0xa>
     278:	80 91 bb 00 	lds	r24, 0x00BB	; 0x8000bb <__TEXT_REGION_LENGTH__+0x7e00bb>
     27c:	08 95       	ret

0000027e <i2c_readNak>:
     27e:	84 e8       	ldi	r24, 0x84	; 132
     280:	80 93 bc 00 	sts	0x00BC, r24	; 0x8000bc <__TEXT_REGION_LENGTH__+0x7e00bc>
     284:	ec eb       	ldi	r30, 0xBC	; 188
     286:	f0 e0       	ldi	r31, 0x00	; 0
     288:	80 81       	ld	r24, Z
     28a:	88 23       	and	r24, r24
     28c:	ec f7       	brge	.-6      	; 0x288 <i2c_readNak+0xa>
     28e:	80 91 bb 00 	lds	r24, 0x00BB	; 0x8000bb <__TEXT_REGION_LENGTH__+0x7e00bb>
     292:	08 95       	ret

00000294 <ws2812_setleds>:
     294:	28 2f       	mov	r18, r24
     296:	39 2f       	mov	r19, r25
     298:	cb 01       	movw	r24, r22
     29a:	88 0f       	add	r24, r24
     29c:	99 1f       	adc	r25, r25
     29e:	68 0f       	add	r22, r24
     2a0:	79 1f       	adc	r23, r25
     2a2:	22 9a       	sbi	0x04, 2	; 4
     2a4:	85 b1       	in	r24, 0x05	; 5
     2a6:	8b 7f       	andi	r24, 0xFB	; 251
     2a8:	95 b1       	in	r25, 0x05	; 5
     2aa:	94 60       	ori	r25, 0x04	; 4
     2ac:	4f b7       	in	r20, 0x3f	; 63
     2ae:	f8 94       	cli
     2b0:	61 15       	cp	r22, r1
     2b2:	71 05       	cpc	r23, r1
     2b4:	c1 f0       	breq	.+48     	; 0x2e6 <loop29+0x22>
     2b6:	62 0f       	add	r22, r18
     2b8:	73 1f       	adc	r23, r19
     2ba:	f9 01       	movw	r30, r18
     2bc:	2f 5f       	subi	r18, 0xFF	; 255
     2be:	3f 4f       	sbci	r19, 0xFF	; 255
     2c0:	50 81       	ld	r21, Z
     2c2:	e8 e0       	ldi	r30, 0x08	; 8

000002c4 <loop29>:
     2c4:	95 b9       	out	0x05, r25	; 5
     2c6:	00 00       	nop
     2c8:	00 c0       	rjmp	.+0      	; 0x2ca <loop29+0x6>
     2ca:	57 ff       	sbrs	r21, 7
     2cc:	85 b9       	out	0x05, r24	; 5
     2ce:	55 0f       	add	r21, r21
     2d0:	00 00       	nop
     2d2:	00 c0       	rjmp	.+0      	; 0x2d4 <loop29+0x10>
     2d4:	00 c0       	rjmp	.+0      	; 0x2d6 <loop29+0x12>
     2d6:	00 c0       	rjmp	.+0      	; 0x2d8 <loop29+0x14>
     2d8:	85 b9       	out	0x05, r24	; 5
     2da:	00 c0       	rjmp	.+0      	; 0x2dc <loop29+0x18>
     2dc:	ea 95       	dec	r30
     2de:	91 f7       	brne	.-28     	; 0x2c4 <loop29>
     2e0:	62 17       	cp	r22, r18
     2e2:	73 07       	cpc	r23, r19
     2e4:	51 f7       	brne	.-44     	; 0x2ba <ws2812_setleds+0x26>
     2e6:	4f bf       	out	0x3f, r20	; 63
     2e8:	8f ea       	ldi	r24, 0xAF	; 175
     2ea:	94 e0       	ldi	r25, 0x04	; 4
     2ec:	01 97       	sbiw	r24, 0x01	; 1
     2ee:	f1 f7       	brne	.-4      	; 0x2ec <loop29+0x28>
     2f0:	00 c0       	rjmp	.+0      	; 0x2f2 <loop29+0x2e>
     2f2:	00 00       	nop
     2f4:	08 95       	ret

000002f6 <ws2812_setleds_pin>:
     2f6:	28 2f       	mov	r18, r24
     2f8:	39 2f       	mov	r19, r25
     2fa:	cb 01       	movw	r24, r22
     2fc:	88 0f       	add	r24, r24
     2fe:	99 1f       	adc	r25, r25
     300:	68 0f       	add	r22, r24
     302:	79 1f       	adc	r23, r25
     304:	84 b1       	in	r24, 0x04	; 4
     306:	84 2b       	or	r24, r20
     308:	84 b9       	out	0x04, r24	; 4
     30a:	95 b1       	in	r25, 0x05	; 5
     30c:	84 2f       	mov	r24, r20
     30e:	80 95       	com	r24
     310:	89 23       	and	r24, r25
     312:	95 b1       	in	r25, 0x05	; 5
     314:	49 2b       	or	r20, r25
     316:	9f b7       	in	r25, 0x3f	; 63
     318:	f8 94       	cli
     31a:	61 15       	cp	r22, r1
     31c:	71 05       	cpc	r23, r1
     31e:	c1 f0       	breq	.+48     	; 0x350 <loop72+0x22>
     320:	62 0f       	add	r22, r18
     322:	73 1f       	adc	r23, r19
     324:	f9 01       	movw	r30, r18
     326:	2f 5f       	subi	r18, 0xFF	; 255
     328:	3f 4f       	sbci	r19, 0xFF	; 255
     32a:	50 81       	ld	r21, Z
     32c:	e8 e0       	ldi	r30, 0x08	; 8

0000032e <loop72>:
     32e:	45 b9       	out	0x05, r20	; 5
     330:	00 00       	nop
     332:	00 c0       	rjmp	.+0      	; 0x334 <loop72+0x6>
     334:	57 ff       	sbrs	r21, 7
     336:	85 b9       	out	0x05, r24	; 5
     338:	55 0f       	add	r21, r21
     33a:	00 00       	nop
     33c:	00 c0       	rjmp	.+0      	; 0x33e <loop72+0x10>
     33e:	00 c0       	rjmp	.+0      	; 0x340 <loop72+0x12>
     340:	00 c0       	rjmp	.+0      	; 0x342 <loop72+0x14>
     342:	85 b9       	out	0x05, r24	; 5
     344:	00 c0       	rjmp	.+0      	; 0x346 <loop72+0x18>
     346:	ea 95       	dec	r30
     348:	91 f7       	brne	.-28     	; 0x32e <loop72>
     34a:	62 17       	cp	r22, r18
     34c:	73 07       	cpc	r23, r19
     34e:	51 f7       	brne	.-44     	; 0x324 <ws2812_setleds_pin+0x2e>
     350:	9f bf       	out	0x3f, r25	; 63
     352:	8f ea       	ldi	r24, 0xAF	; 175
     354:	94 e0       	ldi	r25, 0x04	; 4
     356:	01 97       	sbiw	r24, 0x01	; 1
     358:	f1 f7       	brne	.-4      	; 0x356 <loop72+0x28>
     35a:	00 c0       	rjmp	.+0      	; 0x35c <loop72+0x2e>
     35c:	00 00       	nop
     35e:	08 95       	ret

00000360 <ws2812_setleds_rgbw>:
     360:	28 2f       	mov	r18, r24
     362:	39 2f       	mov	r19, r25
     364:	66 0f       	add	r22, r22
     366:	77 1f       	adc	r23, r23
     368:	66 0f       	add	r22, r22
     36a:	77 1f       	adc	r23, r23
     36c:	22 9a       	sbi	0x04, 2	; 4
     36e:	85 b1       	in	r24, 0x05	; 5
     370:	8b 7f       	andi	r24, 0xFB	; 251
     372:	95 b1       	in	r25, 0x05	; 5
     374:	94 60       	ori	r25, 0x04	; 4
     376:	4f b7       	in	r20, 0x3f	; 63
     378:	f8 94       	cli
     37a:	61 15       	cp	r22, r1
     37c:	71 05       	cpc	r23, r1
     37e:	c1 f0       	breq	.+48     	; 0x3b0 <loop111+0x22>
     380:	62 0f       	add	r22, r18
     382:	73 1f       	adc	r23, r19
     384:	f9 01       	movw	r30, r18
     386:	2f 5f       	subi	r18, 0xFF	; 255
     388:	3f 4f       	sbci	r19, 0xFF	; 255
     38a:	50 81       	ld	r21, Z
     38c:	e8 e0       	ldi	r30, 0x08	; 8

0000038e <loop111>:
     38e:	95 b9       	out	0x05, r25	; 5
     390:	00 00       	nop
     392:	00 c0       	rjmp	.+0      	; 0x394 <loop111+0x6>
     394:	57 ff       	sbrs	r21, 7
     396:	85 b9       	out	0x05, r24	; 5
     398:	55 0f       	add	r21, r21
     39a:	00 00       	nop
     39c:	00 c0       	rjmp	.+0      	; 0x39e <loop111+0x10>
     39e:	00 c0       	rjmp	.+0      	; 0x3a0 <loop111+0x12>
     3a0:	00 c0       	rjmp	.+0      	; 0x3a2 <loop111+0x14>
     3a2:	85 b9       	out	0x05, r24	; 5
     3a4:	00 c0       	rjmp	.+0      	; 0x3a6 <loop111+0x18>
     3a6:	ea 95       	dec	r30
     3a8:	91 f7       	brne	.-28     	; 0x38e <loop111>
     3aa:	62 17       	cp	r22, r18
     3ac:	73 07       	cpc	r23, r19
     3ae:	51 f7       	brne	.-44     	; 0x384 <ws2812_setleds_rgbw+0x24>
     3b0:	4f bf       	out	0x3f, r20	; 63
     3b2:	8f ea       	ldi	r24, 0xAF	; 175
     3b4:	94 e0       	ldi	r25, 0x04	; 4
     3b6:	01 97       	sbiw	r24, 0x01	; 1
     3b8:	f1 f7       	brne	.-4      	; 0x3b6 <loop111+0x28>
     3ba:	00 c0       	rjmp	.+0      	; 0x3bc <loop111+0x2e>
     3bc:	00 00       	nop
     3be:	08 95       	ret

000003c0 <ws2812_sendarray>:
     3c0:	28 2f       	mov	r18, r24
     3c2:	39 2f       	mov	r19, r25
     3c4:	86 2f       	mov	r24, r22
     3c6:	97 2f       	mov	r25, r23
     3c8:	22 9a       	sbi	0x04, 2	; 4
     3ca:	45 b1       	in	r20, 0x05	; 5
     3cc:	4b 7f       	andi	r20, 0xFB	; 251
     3ce:	55 b1       	in	r21, 0x05	; 5
     3d0:	54 60       	ori	r21, 0x04	; 4
     3d2:	6f b7       	in	r22, 0x3f	; 63
     3d4:	f8 94       	cli
     3d6:	00 97       	sbiw	r24, 0x00	; 0
     3d8:	c1 f0       	breq	.+48     	; 0x40a <__FUSE_REGION_LENGTH__+0xa>
     3da:	82 0f       	add	r24, r18
     3dc:	93 1f       	adc	r25, r19
     3de:	f9 01       	movw	r30, r18
     3e0:	2f 5f       	subi	r18, 0xFF	; 255
     3e2:	3f 4f       	sbci	r19, 0xFF	; 255
     3e4:	70 81       	ld	r23, Z
     3e6:	e8 e0       	ldi	r30, 0x08	; 8

000003e8 <loop150>:
     3e8:	55 b9       	out	0x05, r21	; 5
     3ea:	00 00       	nop
     3ec:	00 c0       	rjmp	.+0      	; 0x3ee <loop150+0x6>
     3ee:	77 ff       	sbrs	r23, 7
     3f0:	45 b9       	out	0x05, r20	; 5
     3f2:	77 0f       	add	r23, r23
     3f4:	00 00       	nop
     3f6:	00 c0       	rjmp	.+0      	; 0x3f8 <loop150+0x10>
     3f8:	00 c0       	rjmp	.+0      	; 0x3fa <loop150+0x12>
     3fa:	00 c0       	rjmp	.+0      	; 0x3fc <loop150+0x14>
     3fc:	45 b9       	out	0x05, r20	; 5
     3fe:	00 c0       	rjmp	.+0      	; 0x400 <__FUSE_REGION_LENGTH__>
     400:	ea 95       	dec	r30
     402:	91 f7       	brne	.-28     	; 0x3e8 <loop150>
     404:	82 17       	cp	r24, r18
     406:	93 07       	cpc	r25, r19
     408:	51 f7       	brne	.-44     	; 0x3de <ws2812_sendarray+0x1e>
     40a:	6f bf       	out	0x3f, r22	; 63
     40c:	08 95       	ret

0000040e <ws2812_sendarray_mask>:
     40e:	28 2f       	mov	r18, r24
     410:	39 2f       	mov	r19, r25
     412:	86 2f       	mov	r24, r22
     414:	97 2f       	mov	r25, r23
     416:	54 b1       	in	r21, 0x04	; 4
     418:	54 2b       	or	r21, r20
     41a:	54 b9       	out	0x04, r21	; 4
     41c:	65 b1       	in	r22, 0x05	; 5
     41e:	54 2f       	mov	r21, r20
     420:	50 95       	com	r21
     422:	56 23       	and	r21, r22
     424:	65 b1       	in	r22, 0x05	; 5
     426:	46 2b       	or	r20, r22
     428:	af b7       	in	r26, 0x3f	; 63
     42a:	f8 94       	cli
     42c:	00 97       	sbiw	r24, 0x00	; 0
     42e:	c9 f0       	breq	.+50     	; 0x462 <loop189+0x22>
     430:	b9 01       	movw	r22, r18
     432:	68 0f       	add	r22, r24
     434:	79 1f       	adc	r23, r25
     436:	f9 01       	movw	r30, r18
     438:	2f 5f       	subi	r18, 0xFF	; 255
     43a:	3f 4f       	sbci	r19, 0xFF	; 255
     43c:	80 81       	ld	r24, Z
     43e:	98 e0       	ldi	r25, 0x08	; 8

00000440 <loop189>:
     440:	45 b9       	out	0x05, r20	; 5
     442:	00 00       	nop
     444:	00 c0       	rjmp	.+0      	; 0x446 <loop189+0x6>
     446:	87 ff       	sbrs	r24, 7
     448:	55 b9       	out	0x05, r21	; 5
     44a:	88 0f       	add	r24, r24
     44c:	00 00       	nop
     44e:	00 c0       	rjmp	.+0      	; 0x450 <loop189+0x10>
     450:	00 c0       	rjmp	.+0      	; 0x452 <loop189+0x12>
     452:	00 c0       	rjmp	.+0      	; 0x454 <loop189+0x14>
     454:	55 b9       	out	0x05, r21	; 5
     456:	00 c0       	rjmp	.+0      	; 0x458 <loop189+0x18>
     458:	9a 95       	dec	r25
     45a:	91 f7       	brne	.-28     	; 0x440 <loop189>
     45c:	62 17       	cp	r22, r18
     45e:	73 07       	cpc	r23, r19
     460:	51 f7       	brne	.-44     	; 0x436 <ws2812_sendarray_mask+0x28>
     462:	af bf       	out	0x3f, r26	; 63
     464:	08 95       	ret

00000466 <setup_timers>:
     466:	23 ea       	ldi	r18, 0xA3	; 163
     468:	24 bd       	out	0x24, r18	; 36
     46a:	92 e0       	ldi	r25, 0x02	; 2
     46c:	95 bd       	out	0x25, r25	; 37
     46e:	17 bc       	out	0x27, r1	; 39
     470:	18 bc       	out	0x28, r1	; 40
     472:	ee e6       	ldi	r30, 0x6E	; 110
     474:	f0 e0       	ldi	r31, 0x00	; 0
     476:	80 81       	ld	r24, Z
     478:	81 60       	ori	r24, 0x01	; 1
     47a:	80 83       	st	Z, r24
     47c:	20 93 b0 00 	sts	0x00B0, r18	; 0x8000b0 <__TEXT_REGION_LENGTH__+0x7e00b0>
     480:	90 93 b1 00 	sts	0x00B1, r25	; 0x8000b1 <__TEXT_REGION_LENGTH__+0x7e00b1>
     484:	10 92 b3 00 	sts	0x00B3, r1	; 0x8000b3 <__TEXT_REGION_LENGTH__+0x7e00b3>
     488:	10 92 b4 00 	sts	0x00B4, r1	; 0x8000b4 <__TEXT_REGION_LENGTH__+0x7e00b4>
     48c:	e1 e8       	ldi	r30, 0x81	; 129
     48e:	f0 e0       	ldi	r31, 0x00	; 0
     490:	80 81       	ld	r24, Z
     492:	82 60       	ori	r24, 0x02	; 2
     494:	80 83       	st	Z, r24
     496:	08 95       	ret

00000498 <setup_interrupts>:
     498:	e8 e6       	ldi	r30, 0x68	; 104
     49a:	f0 e0       	ldi	r31, 0x00	; 0
     49c:	80 81       	ld	r24, Z
     49e:	85 60       	ori	r24, 0x05	; 5
     4a0:	80 83       	st	Z, r24
     4a2:	ed e6       	ldi	r30, 0x6D	; 109
     4a4:	f0 e0       	ldi	r31, 0x00	; 0
     4a6:	80 81       	ld	r24, Z
     4a8:	84 69       	ori	r24, 0x94	; 148
     4aa:	80 83       	st	Z, r24
     4ac:	eb e6       	ldi	r30, 0x6B	; 107
     4ae:	f0 e0       	ldi	r31, 0x00	; 0
     4b0:	80 81       	ld	r24, Z
     4b2:	86 61       	ori	r24, 0x16	; 22
     4b4:	80 83       	st	Z, r24
     4b6:	08 95       	ret

000004b8 <setup_gyro>:
     4b8:	80 ed       	ldi	r24, 0xD0	; 208
     4ba:	0e 94 c5 00 	call	0x18a	; 0x18a <i2c_start>
     4be:	8c e6       	ldi	r24, 0x6C	; 108
     4c0:	0e 94 21 01 	call	0x242	; 0x242 <i2c_write>
     4c4:	80 e0       	ldi	r24, 0x00	; 0
     4c6:	0e 94 21 01 	call	0x242	; 0x242 <i2c_write>
     4ca:	0e 94 18 01 	call	0x230	; 0x230 <i2c_stop>
     4ce:	80 ed       	ldi	r24, 0xD0	; 208
     4d0:	0e 94 c5 00 	call	0x18a	; 0x18a <i2c_start>
     4d4:	8b e1       	ldi	r24, 0x1B	; 27
     4d6:	0e 94 21 01 	call	0x242	; 0x242 <i2c_write>
     4da:	88 e0       	ldi	r24, 0x08	; 8
     4dc:	0e 94 21 01 	call	0x242	; 0x242 <i2c_write>
     4e0:	0e 94 18 01 	call	0x230	; 0x230 <i2c_stop>
     4e4:	80 ed       	ldi	r24, 0xD0	; 208
     4e6:	0e 94 c5 00 	call	0x18a	; 0x18a <i2c_start>
     4ea:	8c e1       	ldi	r24, 0x1C	; 28
     4ec:	0e 94 21 01 	call	0x242	; 0x242 <i2c_write>
     4f0:	88 e0       	ldi	r24, 0x08	; 8
     4f2:	0e 94 21 01 	call	0x242	; 0x242 <i2c_write>
     4f6:	0e 94 18 01 	call	0x230	; 0x230 <i2c_stop>
     4fa:	08 95       	ret

000004fc <read_gyro>:
     4fc:	0f 93       	push	r16
     4fe:	1f 93       	push	r17
     500:	cf 93       	push	r28
     502:	df 93       	push	r29
     504:	80 ed       	ldi	r24, 0xD0	; 208
     506:	0e 94 c5 00 	call	0x18a	; 0x18a <i2c_start>
     50a:	8b e3       	ldi	r24, 0x3B	; 59
     50c:	0e 94 21 01 	call	0x242	; 0x242 <i2c_write>
     510:	81 ed       	ldi	r24, 0xD1	; 209
     512:	0e 94 15 01 	call	0x22a	; 0x22a <i2c_rep_start>
     516:	ca e5       	ldi	r28, 0x5A	; 90
     518:	d2 e0       	ldi	r29, 0x02	; 2
     51a:	08 e6       	ldi	r16, 0x68	; 104
     51c:	12 e0       	ldi	r17, 0x02	; 2
     51e:	0e 94 34 01 	call	0x268	; 0x268 <i2c_readAck>
     522:	89 93       	st	Y+, r24
     524:	c0 17       	cp	r28, r16
     526:	d1 07       	cpc	r29, r17
     528:	d1 f7       	brne	.-12     	; 0x51e <read_gyro+0x22>
     52a:	0e 94 3f 01 	call	0x27e	; 0x27e <i2c_readNak>
     52e:	0e 94 18 01 	call	0x230	; 0x230 <i2c_stop>
     532:	ea e5       	ldi	r30, 0x5A	; 90
     534:	f2 e0       	ldi	r31, 0x02	; 2
     536:	80 85       	ldd	r24, Z+8	; 0x08
     538:	41 85       	ldd	r20, Z+9	; 0x09
     53a:	58 2f       	mov	r21, r24
     53c:	50 93 fc 01 	sts	0x01FC, r21	; 0x8001fc <gyro_pitch+0x1>
     540:	40 93 fb 01 	sts	0x01FB, r20	; 0x8001fb <gyro_pitch>
     544:	82 85       	ldd	r24, Z+10	; 0x0a
     546:	23 85       	ldd	r18, Z+11	; 0x0b
     548:	38 2f       	mov	r19, r24
     54a:	30 93 85 02 	sts	0x0285, r19	; 0x800285 <gyro_roll+0x1>
     54e:	20 93 84 02 	sts	0x0284, r18	; 0x800284 <gyro_roll>
     552:	94 85       	ldd	r25, Z+12	; 0x0c
     554:	85 85       	ldd	r24, Z+13	; 0x0d
     556:	90 93 2b 02 	sts	0x022B, r25	; 0x80022b <gyro_yaw+0x1>
     55a:	80 93 2a 02 	sts	0x022A, r24	; 0x80022a <gyro_yaw>
     55e:	60 91 54 02 	lds	r22, 0x0254	; 0x800254 <cal_int>
     562:	70 91 55 02 	lds	r23, 0x0255	; 0x800255 <cal_int+0x1>
     566:	60 3d       	cpi	r22, 0xD0	; 208
     568:	77 40       	sbci	r23, 0x07	; 7
     56a:	29 f0       	breq	.+10     	; 0x576 <read_gyro+0x7a>
     56c:	df 91       	pop	r29
     56e:	cf 91       	pop	r28
     570:	1f 91       	pop	r17
     572:	0f 91       	pop	r16
     574:	08 95       	ret
     576:	ee e2       	ldi	r30, 0x2E	; 46
     578:	f2 e0       	ldi	r31, 0x02	; 2
     57a:	60 81       	ld	r22, Z
     57c:	71 81       	ldd	r23, Z+1	; 0x01
     57e:	46 1b       	sub	r20, r22
     580:	57 0b       	sbc	r21, r23
     582:	50 93 fc 01 	sts	0x01FC, r21	; 0x8001fc <gyro_pitch+0x1>
     586:	40 93 fb 01 	sts	0x01FB, r20	; 0x8001fb <gyro_pitch>
     58a:	42 81       	ldd	r20, Z+2	; 0x02
     58c:	53 81       	ldd	r21, Z+3	; 0x03
     58e:	24 1b       	sub	r18, r20
     590:	35 0b       	sbc	r19, r21
     592:	30 93 85 02 	sts	0x0285, r19	; 0x800285 <gyro_roll+0x1>
     596:	20 93 84 02 	sts	0x0284, r18	; 0x800284 <gyro_roll>
     59a:	24 81       	ldd	r18, Z+4	; 0x04
     59c:	35 81       	ldd	r19, Z+5	; 0x05
     59e:	82 1b       	sub	r24, r18
     5a0:	93 0b       	sbc	r25, r19
     5a2:	90 93 2b 02 	sts	0x022B, r25	; 0x80022b <gyro_yaw+0x1>
     5a6:	80 93 2a 02 	sts	0x022A, r24	; 0x80022a <gyro_yaw>
     5aa:	e0 cf       	rjmp	.-64     	; 0x56c <read_gyro+0x70>

000005ac <calculate_pid>:
     5ac:	cf 92       	push	r12
     5ae:	df 92       	push	r13
     5b0:	ef 92       	push	r14
     5b2:	ff 92       	push	r15
     5b4:	0f 93       	push	r16
     5b6:	1f 93       	push	r17
     5b8:	cf 93       	push	r28
     5ba:	df 93       	push	r29
     5bc:	00 d0       	rcall	.+0      	; 0x5be <calculate_pid+0x12>
     5be:	00 d0       	rcall	.+0      	; 0x5c0 <calculate_pid+0x14>
     5c0:	00 d0       	rcall	.+0      	; 0x5c2 <calculate_pid+0x16>
     5c2:	cd b7       	in	r28, 0x3d	; 61
     5c4:	de b7       	in	r29, 0x3e	; 62
     5c6:	20 91 86 02 	lds	r18, 0x0286	; 0x800286 <pid_roll_setpoint>
     5ca:	30 91 87 02 	lds	r19, 0x0287	; 0x800287 <pid_roll_setpoint+0x1>
     5ce:	40 91 88 02 	lds	r20, 0x0288	; 0x800288 <pid_roll_setpoint+0x2>
     5d2:	50 91 89 02 	lds	r21, 0x0289	; 0x800289 <pid_roll_setpoint+0x3>
     5d6:	60 91 46 02 	lds	r22, 0x0246	; 0x800246 <gyro_roll_input>
     5da:	70 91 47 02 	lds	r23, 0x0247	; 0x800247 <gyro_roll_input+0x1>
     5de:	80 91 48 02 	lds	r24, 0x0248	; 0x800248 <gyro_roll_input+0x2>
     5e2:	90 91 49 02 	lds	r25, 0x0249	; 0x800249 <gyro_roll_input+0x3>
     5e6:	0e 94 73 0f 	call	0x1ee6	; 0x1ee6 <__subsf3>
     5ea:	06 2f       	mov	r16, r22
     5ec:	17 2f       	mov	r17, r23
     5ee:	8e 83       	std	Y+6, r24	; 0x06
     5f0:	9d 83       	std	Y+5, r25	; 0x05
     5f2:	20 91 10 01 	lds	r18, 0x0110	; 0x800110 <pid_i_gain_roll>
     5f6:	30 91 11 01 	lds	r19, 0x0111	; 0x800111 <pid_i_gain_roll+0x1>
     5fa:	40 91 12 01 	lds	r20, 0x0112	; 0x800112 <pid_i_gain_roll+0x2>
     5fe:	50 91 13 01 	lds	r21, 0x0113	; 0x800113 <pid_i_gain_roll+0x3>
     602:	69 83       	std	Y+1, r22	; 0x01
     604:	7a 83       	std	Y+2, r23	; 0x02
     606:	8b 83       	std	Y+3, r24	; 0x03
     608:	9c 83       	std	Y+4, r25	; 0x04
     60a:	69 81       	ldd	r22, Y+1	; 0x01
     60c:	7a 81       	ldd	r23, Y+2	; 0x02
     60e:	8b 81       	ldd	r24, Y+3	; 0x03
     610:	9c 81       	ldd	r25, Y+4	; 0x04
     612:	0e 94 44 11 	call	0x2288	; 0x2288 <__mulsf3>
     616:	20 91 98 02 	lds	r18, 0x0298	; 0x800298 <pid_i_mem_roll>
     61a:	30 91 99 02 	lds	r19, 0x0299	; 0x800299 <pid_i_mem_roll+0x1>
     61e:	40 91 9a 02 	lds	r20, 0x029A	; 0x80029a <pid_i_mem_roll+0x2>
     622:	50 91 9b 02 	lds	r21, 0x029B	; 0x80029b <pid_i_mem_roll+0x3>
     626:	69 83       	std	Y+1, r22	; 0x01
     628:	7a 83       	std	Y+2, r23	; 0x02
     62a:	8b 83       	std	Y+3, r24	; 0x03
     62c:	9c 83       	std	Y+4, r25	; 0x04
     62e:	69 81       	ldd	r22, Y+1	; 0x01
     630:	7a 81       	ldd	r23, Y+2	; 0x02
     632:	8b 81       	ldd	r24, Y+3	; 0x03
     634:	9c 81       	ldd	r25, Y+4	; 0x04
     636:	0e 94 74 0f 	call	0x1ee8	; 0x1ee8 <__addsf3>
     63a:	c6 2e       	mov	r12, r22
     63c:	d7 2e       	mov	r13, r23
     63e:	e8 2e       	mov	r14, r24
     640:	f9 2e       	mov	r15, r25
     642:	20 e0       	ldi	r18, 0x00	; 0
     644:	30 e0       	ldi	r19, 0x00	; 0
     646:	46 e1       	ldi	r20, 0x16	; 22
     648:	53 e4       	ldi	r21, 0x43	; 67
     64a:	69 83       	std	Y+1, r22	; 0x01
     64c:	7a 83       	std	Y+2, r23	; 0x02
     64e:	8b 83       	std	Y+3, r24	; 0x03
     650:	9c 83       	std	Y+4, r25	; 0x04
     652:	69 81       	ldd	r22, Y+1	; 0x01
     654:	7a 81       	ldd	r23, Y+2	; 0x02
     656:	8b 81       	ldd	r24, Y+3	; 0x03
     658:	9c 81       	ldd	r25, Y+4	; 0x04
     65a:	0e 94 3f 11 	call	0x227e	; 0x227e <__gesf2>
     65e:	18 16       	cp	r1, r24
     660:	0c f0       	brlt	.+2      	; 0x664 <calculate_pid+0xb8>
     662:	50 c2       	rjmp	.+1184   	; 0xb04 <__stack+0x205>
     664:	80 e0       	ldi	r24, 0x00	; 0
     666:	90 e0       	ldi	r25, 0x00	; 0
     668:	a6 e1       	ldi	r26, 0x16	; 22
     66a:	b3 e4       	ldi	r27, 0x43	; 67
     66c:	80 93 98 02 	sts	0x0298, r24	; 0x800298 <pid_i_mem_roll>
     670:	90 93 99 02 	sts	0x0299, r25	; 0x800299 <pid_i_mem_roll+0x1>
     674:	a0 93 9a 02 	sts	0x029A, r26	; 0x80029a <pid_i_mem_roll+0x2>
     678:	b0 93 9b 02 	sts	0x029B, r27	; 0x80029b <pid_i_mem_roll+0x3>
     67c:	20 91 14 01 	lds	r18, 0x0114	; 0x800114 <pid_p_gain_roll>
     680:	30 91 15 01 	lds	r19, 0x0115	; 0x800115 <pid_p_gain_roll+0x1>
     684:	40 91 16 01 	lds	r20, 0x0116	; 0x800116 <pid_p_gain_roll+0x2>
     688:	50 91 17 01 	lds	r21, 0x0117	; 0x800117 <pid_p_gain_roll+0x3>
     68c:	09 83       	std	Y+1, r16	; 0x01
     68e:	1a 83       	std	Y+2, r17	; 0x02
     690:	8e 81       	ldd	r24, Y+6	; 0x06
     692:	8b 83       	std	Y+3, r24	; 0x03
     694:	8d 81       	ldd	r24, Y+5	; 0x05
     696:	8c 83       	std	Y+4, r24	; 0x04
     698:	69 81       	ldd	r22, Y+1	; 0x01
     69a:	7a 81       	ldd	r23, Y+2	; 0x02
     69c:	8b 81       	ldd	r24, Y+3	; 0x03
     69e:	9c 81       	ldd	r25, Y+4	; 0x04
     6a0:	0e 94 44 11 	call	0x2288	; 0x2288 <__mulsf3>
     6a4:	20 91 98 02 	lds	r18, 0x0298	; 0x800298 <pid_i_mem_roll>
     6a8:	30 91 99 02 	lds	r19, 0x0299	; 0x800299 <pid_i_mem_roll+0x1>
     6ac:	40 91 9a 02 	lds	r20, 0x029A	; 0x80029a <pid_i_mem_roll+0x2>
     6b0:	50 91 9b 02 	lds	r21, 0x029B	; 0x80029b <pid_i_mem_roll+0x3>
     6b4:	69 83       	std	Y+1, r22	; 0x01
     6b6:	7a 83       	std	Y+2, r23	; 0x02
     6b8:	8b 83       	std	Y+3, r24	; 0x03
     6ba:	9c 83       	std	Y+4, r25	; 0x04
     6bc:	69 81       	ldd	r22, Y+1	; 0x01
     6be:	7a 81       	ldd	r23, Y+2	; 0x02
     6c0:	8b 81       	ldd	r24, Y+3	; 0x03
     6c2:	9c 81       	ldd	r25, Y+4	; 0x04
     6c4:	0e 94 74 0f 	call	0x1ee8	; 0x1ee8 <__addsf3>
     6c8:	c6 2e       	mov	r12, r22
     6ca:	d7 2e       	mov	r13, r23
     6cc:	e8 2e       	mov	r14, r24
     6ce:	f9 2e       	mov	r15, r25
     6d0:	20 91 f5 01 	lds	r18, 0x01F5	; 0x8001f5 <pid_last_roll_d_error>
     6d4:	30 91 f6 01 	lds	r19, 0x01F6	; 0x8001f6 <pid_last_roll_d_error+0x1>
     6d8:	40 91 f7 01 	lds	r20, 0x01F7	; 0x8001f7 <pid_last_roll_d_error+0x2>
     6dc:	50 91 f8 01 	lds	r21, 0x01F8	; 0x8001f8 <pid_last_roll_d_error+0x3>
     6e0:	09 83       	std	Y+1, r16	; 0x01
     6e2:	1a 83       	std	Y+2, r17	; 0x02
     6e4:	8e 81       	ldd	r24, Y+6	; 0x06
     6e6:	8b 83       	std	Y+3, r24	; 0x03
     6e8:	8d 81       	ldd	r24, Y+5	; 0x05
     6ea:	8c 83       	std	Y+4, r24	; 0x04
     6ec:	69 81       	ldd	r22, Y+1	; 0x01
     6ee:	7a 81       	ldd	r23, Y+2	; 0x02
     6f0:	8b 81       	ldd	r24, Y+3	; 0x03
     6f2:	9c 81       	ldd	r25, Y+4	; 0x04
     6f4:	0e 94 73 0f 	call	0x1ee6	; 0x1ee6 <__subsf3>
     6f8:	20 91 0c 01 	lds	r18, 0x010C	; 0x80010c <pid_d_gain_roll>
     6fc:	30 91 0d 01 	lds	r19, 0x010D	; 0x80010d <pid_d_gain_roll+0x1>
     700:	40 91 0e 01 	lds	r20, 0x010E	; 0x80010e <pid_d_gain_roll+0x2>
     704:	50 91 0f 01 	lds	r21, 0x010F	; 0x80010f <pid_d_gain_roll+0x3>
     708:	69 83       	std	Y+1, r22	; 0x01
     70a:	7a 83       	std	Y+2, r23	; 0x02
     70c:	8b 83       	std	Y+3, r24	; 0x03
     70e:	9c 83       	std	Y+4, r25	; 0x04
     710:	69 81       	ldd	r22, Y+1	; 0x01
     712:	7a 81       	ldd	r23, Y+2	; 0x02
     714:	8b 81       	ldd	r24, Y+3	; 0x03
     716:	9c 81       	ldd	r25, Y+4	; 0x04
     718:	0e 94 44 11 	call	0x2288	; 0x2288 <__mulsf3>
     71c:	26 2f       	mov	r18, r22
     71e:	37 2f       	mov	r19, r23
     720:	48 2f       	mov	r20, r24
     722:	59 2f       	mov	r21, r25
     724:	c9 82       	std	Y+1, r12	; 0x01
     726:	da 82       	std	Y+2, r13	; 0x02
     728:	eb 82       	std	Y+3, r14	; 0x03
     72a:	fc 82       	std	Y+4, r15	; 0x04
     72c:	69 81       	ldd	r22, Y+1	; 0x01
     72e:	7a 81       	ldd	r23, Y+2	; 0x02
     730:	8b 81       	ldd	r24, Y+3	; 0x03
     732:	9c 81       	ldd	r25, Y+4	; 0x04
     734:	0e 94 74 0f 	call	0x1ee8	; 0x1ee8 <__addsf3>
     738:	c6 2e       	mov	r12, r22
     73a:	d7 2e       	mov	r13, r23
     73c:	e8 2e       	mov	r14, r24
     73e:	f9 2e       	mov	r15, r25
     740:	20 e0       	ldi	r18, 0x00	; 0
     742:	30 e0       	ldi	r19, 0x00	; 0
     744:	46 e1       	ldi	r20, 0x16	; 22
     746:	53 e4       	ldi	r21, 0x43	; 67
     748:	69 83       	std	Y+1, r22	; 0x01
     74a:	7a 83       	std	Y+2, r23	; 0x02
     74c:	8b 83       	std	Y+3, r24	; 0x03
     74e:	9c 83       	std	Y+4, r25	; 0x04
     750:	69 81       	ldd	r22, Y+1	; 0x01
     752:	7a 81       	ldd	r23, Y+2	; 0x02
     754:	8b 81       	ldd	r24, Y+3	; 0x03
     756:	9c 81       	ldd	r25, Y+4	; 0x04
     758:	0e 94 3f 11 	call	0x227e	; 0x227e <__gesf2>
     75c:	18 16       	cp	r1, r24
     75e:	0c f0       	brlt	.+2      	; 0x762 <calculate_pid+0x1b6>
     760:	fb c1       	rjmp	.+1014   	; 0xb58 <__stack+0x259>
     762:	80 e0       	ldi	r24, 0x00	; 0
     764:	90 e0       	ldi	r25, 0x00	; 0
     766:	a6 e1       	ldi	r26, 0x16	; 22
     768:	b3 e4       	ldi	r27, 0x43	; 67
     76a:	80 93 ed 01 	sts	0x01ED, r24	; 0x8001ed <pid_output_roll>
     76e:	90 93 ee 01 	sts	0x01EE, r25	; 0x8001ee <pid_output_roll+0x1>
     772:	a0 93 ef 01 	sts	0x01EF, r26	; 0x8001ef <pid_output_roll+0x2>
     776:	b0 93 f0 01 	sts	0x01F0, r27	; 0x8001f0 <pid_output_roll+0x3>
     77a:	80 2f       	mov	r24, r16
     77c:	91 2f       	mov	r25, r17
     77e:	ae 81       	ldd	r26, Y+6	; 0x06
     780:	bd 81       	ldd	r27, Y+5	; 0x05
     782:	80 93 f5 01 	sts	0x01F5, r24	; 0x8001f5 <pid_last_roll_d_error>
     786:	90 93 f6 01 	sts	0x01F6, r25	; 0x8001f6 <pid_last_roll_d_error+0x1>
     78a:	a0 93 f7 01 	sts	0x01F7, r26	; 0x8001f7 <pid_last_roll_d_error+0x2>
     78e:	b0 93 f8 01 	sts	0x01F8, r27	; 0x8001f8 <pid_last_roll_d_error+0x3>
     792:	20 91 8a 02 	lds	r18, 0x028A	; 0x80028a <pid_pitch_setpoint>
     796:	30 91 8b 02 	lds	r19, 0x028B	; 0x80028b <pid_pitch_setpoint+0x1>
     79a:	40 91 8c 02 	lds	r20, 0x028C	; 0x80028c <pid_pitch_setpoint+0x2>
     79e:	50 91 8d 02 	lds	r21, 0x028D	; 0x80028d <pid_pitch_setpoint+0x3>
     7a2:	60 91 16 02 	lds	r22, 0x0216	; 0x800216 <gyro_pitch_input>
     7a6:	70 91 17 02 	lds	r23, 0x0217	; 0x800217 <gyro_pitch_input+0x1>
     7aa:	80 91 18 02 	lds	r24, 0x0218	; 0x800218 <gyro_pitch_input+0x2>
     7ae:	90 91 19 02 	lds	r25, 0x0219	; 0x800219 <gyro_pitch_input+0x3>
     7b2:	0e 94 73 0f 	call	0x1ee6	; 0x1ee6 <__subsf3>
     7b6:	06 2f       	mov	r16, r22
     7b8:	17 2f       	mov	r17, r23
     7ba:	8e 83       	std	Y+6, r24	; 0x06
     7bc:	9d 83       	std	Y+5, r25	; 0x05
     7be:	20 91 04 01 	lds	r18, 0x0104	; 0x800104 <pid_i_gain_pitch>
     7c2:	30 91 05 01 	lds	r19, 0x0105	; 0x800105 <pid_i_gain_pitch+0x1>
     7c6:	40 91 06 01 	lds	r20, 0x0106	; 0x800106 <pid_i_gain_pitch+0x2>
     7ca:	50 91 07 01 	lds	r21, 0x0107	; 0x800107 <pid_i_gain_pitch+0x3>
     7ce:	69 83       	std	Y+1, r22	; 0x01
     7d0:	7a 83       	std	Y+2, r23	; 0x02
     7d2:	8b 83       	std	Y+3, r24	; 0x03
     7d4:	9c 83       	std	Y+4, r25	; 0x04
     7d6:	69 81       	ldd	r22, Y+1	; 0x01
     7d8:	7a 81       	ldd	r23, Y+2	; 0x02
     7da:	8b 81       	ldd	r24, Y+3	; 0x03
     7dc:	9c 81       	ldd	r25, Y+4	; 0x04
     7de:	0e 94 44 11 	call	0x2288	; 0x2288 <__mulsf3>
     7e2:	20 91 56 02 	lds	r18, 0x0256	; 0x800256 <pid_i_mem_pitch>
     7e6:	30 91 57 02 	lds	r19, 0x0257	; 0x800257 <pid_i_mem_pitch+0x1>
     7ea:	40 91 58 02 	lds	r20, 0x0258	; 0x800258 <pid_i_mem_pitch+0x2>
     7ee:	50 91 59 02 	lds	r21, 0x0259	; 0x800259 <pid_i_mem_pitch+0x3>
     7f2:	69 83       	std	Y+1, r22	; 0x01
     7f4:	7a 83       	std	Y+2, r23	; 0x02
     7f6:	8b 83       	std	Y+3, r24	; 0x03
     7f8:	9c 83       	std	Y+4, r25	; 0x04
     7fa:	69 81       	ldd	r22, Y+1	; 0x01
     7fc:	7a 81       	ldd	r23, Y+2	; 0x02
     7fe:	8b 81       	ldd	r24, Y+3	; 0x03
     800:	9c 81       	ldd	r25, Y+4	; 0x04
     802:	0e 94 74 0f 	call	0x1ee8	; 0x1ee8 <__addsf3>
     806:	c6 2e       	mov	r12, r22
     808:	d7 2e       	mov	r13, r23
     80a:	e8 2e       	mov	r14, r24
     80c:	f9 2e       	mov	r15, r25
     80e:	20 e0       	ldi	r18, 0x00	; 0
     810:	30 e0       	ldi	r19, 0x00	; 0
     812:	46 e1       	ldi	r20, 0x16	; 22
     814:	53 e4       	ldi	r21, 0x43	; 67
     816:	69 83       	std	Y+1, r22	; 0x01
     818:	7a 83       	std	Y+2, r23	; 0x02
     81a:	8b 83       	std	Y+3, r24	; 0x03
     81c:	9c 83       	std	Y+4, r25	; 0x04
     81e:	69 81       	ldd	r22, Y+1	; 0x01
     820:	7a 81       	ldd	r23, Y+2	; 0x02
     822:	8b 81       	ldd	r24, Y+3	; 0x03
     824:	9c 81       	ldd	r25, Y+4	; 0x04
     826:	0e 94 3f 11 	call	0x227e	; 0x227e <__gesf2>
     82a:	18 16       	cp	r1, r24
     82c:	0c f0       	brlt	.+2      	; 0x830 <calculate_pid+0x284>
     82e:	be c1       	rjmp	.+892    	; 0xbac <__stack+0x2ad>
     830:	80 e0       	ldi	r24, 0x00	; 0
     832:	90 e0       	ldi	r25, 0x00	; 0
     834:	a6 e1       	ldi	r26, 0x16	; 22
     836:	b3 e4       	ldi	r27, 0x43	; 67
     838:	80 93 56 02 	sts	0x0256, r24	; 0x800256 <pid_i_mem_pitch>
     83c:	90 93 57 02 	sts	0x0257, r25	; 0x800257 <pid_i_mem_pitch+0x1>
     840:	a0 93 58 02 	sts	0x0258, r26	; 0x800258 <pid_i_mem_pitch+0x2>
     844:	b0 93 59 02 	sts	0x0259, r27	; 0x800259 <pid_i_mem_pitch+0x3>
     848:	20 91 08 01 	lds	r18, 0x0108	; 0x800108 <pid_p_gain_pitch>
     84c:	30 91 09 01 	lds	r19, 0x0109	; 0x800109 <pid_p_gain_pitch+0x1>
     850:	40 91 0a 01 	lds	r20, 0x010A	; 0x80010a <pid_p_gain_pitch+0x2>
     854:	50 91 0b 01 	lds	r21, 0x010B	; 0x80010b <pid_p_gain_pitch+0x3>
     858:	09 83       	std	Y+1, r16	; 0x01
     85a:	1a 83       	std	Y+2, r17	; 0x02
     85c:	8e 81       	ldd	r24, Y+6	; 0x06
     85e:	8b 83       	std	Y+3, r24	; 0x03
     860:	8d 81       	ldd	r24, Y+5	; 0x05
     862:	8c 83       	std	Y+4, r24	; 0x04
     864:	69 81       	ldd	r22, Y+1	; 0x01
     866:	7a 81       	ldd	r23, Y+2	; 0x02
     868:	8b 81       	ldd	r24, Y+3	; 0x03
     86a:	9c 81       	ldd	r25, Y+4	; 0x04
     86c:	0e 94 44 11 	call	0x2288	; 0x2288 <__mulsf3>
     870:	20 91 56 02 	lds	r18, 0x0256	; 0x800256 <pid_i_mem_pitch>
     874:	30 91 57 02 	lds	r19, 0x0257	; 0x800257 <pid_i_mem_pitch+0x1>
     878:	40 91 58 02 	lds	r20, 0x0258	; 0x800258 <pid_i_mem_pitch+0x2>
     87c:	50 91 59 02 	lds	r21, 0x0259	; 0x800259 <pid_i_mem_pitch+0x3>
     880:	69 83       	std	Y+1, r22	; 0x01
     882:	7a 83       	std	Y+2, r23	; 0x02
     884:	8b 83       	std	Y+3, r24	; 0x03
     886:	9c 83       	std	Y+4, r25	; 0x04
     888:	69 81       	ldd	r22, Y+1	; 0x01
     88a:	7a 81       	ldd	r23, Y+2	; 0x02
     88c:	8b 81       	ldd	r24, Y+3	; 0x03
     88e:	9c 81       	ldd	r25, Y+4	; 0x04
     890:	0e 94 74 0f 	call	0x1ee8	; 0x1ee8 <__addsf3>
     894:	c6 2e       	mov	r12, r22
     896:	d7 2e       	mov	r13, r23
     898:	e8 2e       	mov	r14, r24
     89a:	f9 2e       	mov	r15, r25
     89c:	20 91 8e 02 	lds	r18, 0x028E	; 0x80028e <pid_last_pitch_d_error>
     8a0:	30 91 8f 02 	lds	r19, 0x028F	; 0x80028f <pid_last_pitch_d_error+0x1>
     8a4:	40 91 90 02 	lds	r20, 0x0290	; 0x800290 <pid_last_pitch_d_error+0x2>
     8a8:	50 91 91 02 	lds	r21, 0x0291	; 0x800291 <pid_last_pitch_d_error+0x3>
     8ac:	09 83       	std	Y+1, r16	; 0x01
     8ae:	1a 83       	std	Y+2, r17	; 0x02
     8b0:	8e 81       	ldd	r24, Y+6	; 0x06
     8b2:	8b 83       	std	Y+3, r24	; 0x03
     8b4:	8d 81       	ldd	r24, Y+5	; 0x05
     8b6:	8c 83       	std	Y+4, r24	; 0x04
     8b8:	69 81       	ldd	r22, Y+1	; 0x01
     8ba:	7a 81       	ldd	r23, Y+2	; 0x02
     8bc:	8b 81       	ldd	r24, Y+3	; 0x03
     8be:	9c 81       	ldd	r25, Y+4	; 0x04
     8c0:	0e 94 73 0f 	call	0x1ee6	; 0x1ee6 <__subsf3>
     8c4:	20 91 00 01 	lds	r18, 0x0100	; 0x800100 <pid_d_gain_pitch>
     8c8:	30 91 01 01 	lds	r19, 0x0101	; 0x800101 <pid_d_gain_pitch+0x1>
     8cc:	40 91 02 01 	lds	r20, 0x0102	; 0x800102 <pid_d_gain_pitch+0x2>
     8d0:	50 91 03 01 	lds	r21, 0x0103	; 0x800103 <pid_d_gain_pitch+0x3>
     8d4:	69 83       	std	Y+1, r22	; 0x01
     8d6:	7a 83       	std	Y+2, r23	; 0x02
     8d8:	8b 83       	std	Y+3, r24	; 0x03
     8da:	9c 83       	std	Y+4, r25	; 0x04
     8dc:	69 81       	ldd	r22, Y+1	; 0x01
     8de:	7a 81       	ldd	r23, Y+2	; 0x02
     8e0:	8b 81       	ldd	r24, Y+3	; 0x03
     8e2:	9c 81       	ldd	r25, Y+4	; 0x04
     8e4:	0e 94 44 11 	call	0x2288	; 0x2288 <__mulsf3>
     8e8:	26 2f       	mov	r18, r22
     8ea:	37 2f       	mov	r19, r23
     8ec:	48 2f       	mov	r20, r24
     8ee:	59 2f       	mov	r21, r25
     8f0:	c9 82       	std	Y+1, r12	; 0x01
     8f2:	da 82       	std	Y+2, r13	; 0x02
     8f4:	eb 82       	std	Y+3, r14	; 0x03
     8f6:	fc 82       	std	Y+4, r15	; 0x04
     8f8:	69 81       	ldd	r22, Y+1	; 0x01
     8fa:	7a 81       	ldd	r23, Y+2	; 0x02
     8fc:	8b 81       	ldd	r24, Y+3	; 0x03
     8fe:	9c 81       	ldd	r25, Y+4	; 0x04
     900:	0e 94 74 0f 	call	0x1ee8	; 0x1ee8 <__addsf3>
     904:	c6 2e       	mov	r12, r22
     906:	d7 2e       	mov	r13, r23
     908:	e8 2e       	mov	r14, r24
     90a:	f9 2e       	mov	r15, r25
     90c:	20 e0       	ldi	r18, 0x00	; 0
     90e:	30 e0       	ldi	r19, 0x00	; 0
     910:	46 e1       	ldi	r20, 0x16	; 22
     912:	53 e4       	ldi	r21, 0x43	; 67
     914:	69 83       	std	Y+1, r22	; 0x01
     916:	7a 83       	std	Y+2, r23	; 0x02
     918:	8b 83       	std	Y+3, r24	; 0x03
     91a:	9c 83       	std	Y+4, r25	; 0x04
     91c:	69 81       	ldd	r22, Y+1	; 0x01
     91e:	7a 81       	ldd	r23, Y+2	; 0x02
     920:	8b 81       	ldd	r24, Y+3	; 0x03
     922:	9c 81       	ldd	r25, Y+4	; 0x04
     924:	0e 94 3f 11 	call	0x227e	; 0x227e <__gesf2>
     928:	18 16       	cp	r1, r24
     92a:	0c f0       	brlt	.+2      	; 0x92e <__stack+0x2f>
     92c:	69 c1       	rjmp	.+722    	; 0xc00 <__stack+0x301>
     92e:	80 e0       	ldi	r24, 0x00	; 0
     930:	90 e0       	ldi	r25, 0x00	; 0
     932:	a6 e1       	ldi	r26, 0x16	; 22
     934:	b3 e4       	ldi	r27, 0x43	; 67
     936:	80 93 72 02 	sts	0x0272, r24	; 0x800272 <pid_output_pitch>
     93a:	90 93 73 02 	sts	0x0273, r25	; 0x800273 <pid_output_pitch+0x1>
     93e:	a0 93 74 02 	sts	0x0274, r26	; 0x800274 <pid_output_pitch+0x2>
     942:	b0 93 75 02 	sts	0x0275, r27	; 0x800275 <pid_output_pitch+0x3>
     946:	80 2f       	mov	r24, r16
     948:	91 2f       	mov	r25, r17
     94a:	ae 81       	ldd	r26, Y+6	; 0x06
     94c:	bd 81       	ldd	r27, Y+5	; 0x05
     94e:	80 93 8e 02 	sts	0x028E, r24	; 0x80028e <pid_last_pitch_d_error>
     952:	90 93 8f 02 	sts	0x028F, r25	; 0x80028f <pid_last_pitch_d_error+0x1>
     956:	a0 93 90 02 	sts	0x0290, r26	; 0x800290 <pid_last_pitch_d_error+0x2>
     95a:	b0 93 91 02 	sts	0x0291, r27	; 0x800291 <pid_last_pitch_d_error+0x3>
     95e:	20 91 7e 02 	lds	r18, 0x027E	; 0x80027e <pid_yaw_setpoint>
     962:	30 91 7f 02 	lds	r19, 0x027F	; 0x80027f <pid_yaw_setpoint+0x1>
     966:	40 91 80 02 	lds	r20, 0x0280	; 0x800280 <pid_yaw_setpoint+0x2>
     96a:	50 91 81 02 	lds	r21, 0x0281	; 0x800281 <pid_yaw_setpoint+0x3>
     96e:	60 91 38 02 	lds	r22, 0x0238	; 0x800238 <gyro_yaw_input>
     972:	70 91 39 02 	lds	r23, 0x0239	; 0x800239 <gyro_yaw_input+0x1>
     976:	80 91 3a 02 	lds	r24, 0x023A	; 0x80023a <gyro_yaw_input+0x2>
     97a:	90 91 3b 02 	lds	r25, 0x023B	; 0x80023b <gyro_yaw_input+0x3>
     97e:	0e 94 73 0f 	call	0x1ee6	; 0x1ee6 <__subsf3>
     982:	06 2f       	mov	r16, r22
     984:	17 2f       	mov	r17, r23
     986:	8e 83       	std	Y+6, r24	; 0x06
     988:	9d 83       	std	Y+5, r25	; 0x05
     98a:	86 2f       	mov	r24, r22
     98c:	91 2f       	mov	r25, r17
     98e:	ae 81       	ldd	r26, Y+6	; 0x06
     990:	bd 81       	ldd	r27, Y+5	; 0x05
     992:	80 93 94 02 	sts	0x0294, r24	; 0x800294 <pid_error_temp>
     996:	90 93 95 02 	sts	0x0295, r25	; 0x800295 <pid_error_temp+0x1>
     99a:	a0 93 96 02 	sts	0x0296, r26	; 0x800296 <pid_error_temp+0x2>
     99e:	b0 93 97 02 	sts	0x0297, r27	; 0x800297 <pid_error_temp+0x3>
     9a2:	22 e5       	ldi	r18, 0x52	; 82
     9a4:	39 e4       	ldi	r19, 0x49	; 73
     9a6:	4d e9       	ldi	r20, 0x9D	; 157
     9a8:	59 e3       	ldi	r21, 0x39	; 57
     9aa:	09 83       	std	Y+1, r16	; 0x01
     9ac:	1a 83       	std	Y+2, r17	; 0x02
     9ae:	ab 83       	std	Y+3, r26	; 0x03
     9b0:	bc 83       	std	Y+4, r27	; 0x04
     9b2:	69 81       	ldd	r22, Y+1	; 0x01
     9b4:	7a 81       	ldd	r23, Y+2	; 0x02
     9b6:	8b 81       	ldd	r24, Y+3	; 0x03
     9b8:	9c 81       	ldd	r25, Y+4	; 0x04
     9ba:	0e 94 44 11 	call	0x2288	; 0x2288 <__mulsf3>
     9be:	20 91 a4 02 	lds	r18, 0x02A4	; 0x8002a4 <pid_i_mem_yaw>
     9c2:	30 91 a5 02 	lds	r19, 0x02A5	; 0x8002a5 <pid_i_mem_yaw+0x1>
     9c6:	40 91 a6 02 	lds	r20, 0x02A6	; 0x8002a6 <pid_i_mem_yaw+0x2>
     9ca:	50 91 a7 02 	lds	r21, 0x02A7	; 0x8002a7 <pid_i_mem_yaw+0x3>
     9ce:	69 83       	std	Y+1, r22	; 0x01
     9d0:	7a 83       	std	Y+2, r23	; 0x02
     9d2:	8b 83       	std	Y+3, r24	; 0x03
     9d4:	9c 83       	std	Y+4, r25	; 0x04
     9d6:	69 81       	ldd	r22, Y+1	; 0x01
     9d8:	7a 81       	ldd	r23, Y+2	; 0x02
     9da:	8b 81       	ldd	r24, Y+3	; 0x03
     9dc:	9c 81       	ldd	r25, Y+4	; 0x04
     9de:	0e 94 74 0f 	call	0x1ee8	; 0x1ee8 <__addsf3>
     9e2:	c6 2e       	mov	r12, r22
     9e4:	d7 2e       	mov	r13, r23
     9e6:	e8 2e       	mov	r14, r24
     9e8:	f9 2e       	mov	r15, r25
     9ea:	20 e0       	ldi	r18, 0x00	; 0
     9ec:	30 e0       	ldi	r19, 0x00	; 0
     9ee:	46 e1       	ldi	r20, 0x16	; 22
     9f0:	53 e4       	ldi	r21, 0x43	; 67
     9f2:	69 83       	std	Y+1, r22	; 0x01
     9f4:	7a 83       	std	Y+2, r23	; 0x02
     9f6:	8b 83       	std	Y+3, r24	; 0x03
     9f8:	9c 83       	std	Y+4, r25	; 0x04
     9fa:	69 81       	ldd	r22, Y+1	; 0x01
     9fc:	7a 81       	ldd	r23, Y+2	; 0x02
     9fe:	8b 81       	ldd	r24, Y+3	; 0x03
     a00:	9c 81       	ldd	r25, Y+4	; 0x04
     a02:	0e 94 3f 11 	call	0x227e	; 0x227e <__gesf2>
     a06:	18 16       	cp	r1, r24
     a08:	0c f0       	brlt	.+2      	; 0xa0c <__stack+0x10d>
     a0a:	24 c1       	rjmp	.+584    	; 0xc54 <__stack+0x355>
     a0c:	80 e0       	ldi	r24, 0x00	; 0
     a0e:	90 e0       	ldi	r25, 0x00	; 0
     a10:	a6 e1       	ldi	r26, 0x16	; 22
     a12:	b3 e4       	ldi	r27, 0x43	; 67
     a14:	80 93 a4 02 	sts	0x02A4, r24	; 0x8002a4 <pid_i_mem_yaw>
     a18:	90 93 a5 02 	sts	0x02A5, r25	; 0x8002a5 <pid_i_mem_yaw+0x1>
     a1c:	a0 93 a6 02 	sts	0x02A6, r26	; 0x8002a6 <pid_i_mem_yaw+0x2>
     a20:	b0 93 a7 02 	sts	0x02A7, r27	; 0x8002a7 <pid_i_mem_yaw+0x3>
     a24:	20 91 a4 02 	lds	r18, 0x02A4	; 0x8002a4 <pid_i_mem_yaw>
     a28:	30 91 a5 02 	lds	r19, 0x02A5	; 0x8002a5 <pid_i_mem_yaw+0x1>
     a2c:	40 91 a6 02 	lds	r20, 0x02A6	; 0x8002a6 <pid_i_mem_yaw+0x2>
     a30:	50 91 a7 02 	lds	r21, 0x02A7	; 0x8002a7 <pid_i_mem_yaw+0x3>
     a34:	09 83       	std	Y+1, r16	; 0x01
     a36:	1a 83       	std	Y+2, r17	; 0x02
     a38:	8e 81       	ldd	r24, Y+6	; 0x06
     a3a:	8b 83       	std	Y+3, r24	; 0x03
     a3c:	8d 81       	ldd	r24, Y+5	; 0x05
     a3e:	8c 83       	std	Y+4, r24	; 0x04
     a40:	69 81       	ldd	r22, Y+1	; 0x01
     a42:	7a 81       	ldd	r23, Y+2	; 0x02
     a44:	8b 81       	ldd	r24, Y+3	; 0x03
     a46:	9c 81       	ldd	r25, Y+4	; 0x04
     a48:	0e 94 74 0f 	call	0x1ee8	; 0x1ee8 <__addsf3>
     a4c:	c6 2e       	mov	r12, r22
     a4e:	d7 2e       	mov	r13, r23
     a50:	e8 2e       	mov	r14, r24
     a52:	f9 2e       	mov	r15, r25
     a54:	20 91 a0 02 	lds	r18, 0x02A0	; 0x8002a0 <pid_last_yaw_d_error>
     a58:	30 91 a1 02 	lds	r19, 0x02A1	; 0x8002a1 <pid_last_yaw_d_error+0x1>
     a5c:	40 91 a2 02 	lds	r20, 0x02A2	; 0x8002a2 <pid_last_yaw_d_error+0x2>
     a60:	50 91 a3 02 	lds	r21, 0x02A3	; 0x8002a3 <pid_last_yaw_d_error+0x3>
     a64:	69 81       	ldd	r22, Y+1	; 0x01
     a66:	7a 81       	ldd	r23, Y+2	; 0x02
     a68:	8b 81       	ldd	r24, Y+3	; 0x03
     a6a:	9c 81       	ldd	r25, Y+4	; 0x04
     a6c:	0e 94 73 0f 	call	0x1ee6	; 0x1ee6 <__subsf3>
     a70:	26 2f       	mov	r18, r22
     a72:	37 2f       	mov	r19, r23
     a74:	48 2f       	mov	r20, r24
     a76:	59 2f       	mov	r21, r25
     a78:	c9 82       	std	Y+1, r12	; 0x01
     a7a:	da 82       	std	Y+2, r13	; 0x02
     a7c:	eb 82       	std	Y+3, r14	; 0x03
     a7e:	fc 82       	std	Y+4, r15	; 0x04
     a80:	69 81       	ldd	r22, Y+1	; 0x01
     a82:	7a 81       	ldd	r23, Y+2	; 0x02
     a84:	8b 81       	ldd	r24, Y+3	; 0x03
     a86:	9c 81       	ldd	r25, Y+4	; 0x04
     a88:	0e 94 74 0f 	call	0x1ee8	; 0x1ee8 <__addsf3>
     a8c:	c6 2e       	mov	r12, r22
     a8e:	d7 2e       	mov	r13, r23
     a90:	e8 2e       	mov	r14, r24
     a92:	f9 2e       	mov	r15, r25
     a94:	20 e0       	ldi	r18, 0x00	; 0
     a96:	30 e0       	ldi	r19, 0x00	; 0
     a98:	46 e1       	ldi	r20, 0x16	; 22
     a9a:	53 e4       	ldi	r21, 0x43	; 67
     a9c:	69 83       	std	Y+1, r22	; 0x01
     a9e:	7a 83       	std	Y+2, r23	; 0x02
     aa0:	8b 83       	std	Y+3, r24	; 0x03
     aa2:	9c 83       	std	Y+4, r25	; 0x04
     aa4:	69 81       	ldd	r22, Y+1	; 0x01
     aa6:	7a 81       	ldd	r23, Y+2	; 0x02
     aa8:	8b 81       	ldd	r24, Y+3	; 0x03
     aaa:	9c 81       	ldd	r25, Y+4	; 0x04
     aac:	0e 94 3f 11 	call	0x227e	; 0x227e <__gesf2>
     ab0:	18 16       	cp	r1, r24
     ab2:	0c f0       	brlt	.+2      	; 0xab6 <__stack+0x1b7>
     ab4:	f9 c0       	rjmp	.+498    	; 0xca8 <__stack+0x3a9>
     ab6:	80 e0       	ldi	r24, 0x00	; 0
     ab8:	90 e0       	ldi	r25, 0x00	; 0
     aba:	a6 e1       	ldi	r26, 0x16	; 22
     abc:	b3 e4       	ldi	r27, 0x43	; 67
     abe:	80 93 3c 02 	sts	0x023C, r24	; 0x80023c <pid_output_yaw>
     ac2:	90 93 3d 02 	sts	0x023D, r25	; 0x80023d <pid_output_yaw+0x1>
     ac6:	a0 93 3e 02 	sts	0x023E, r26	; 0x80023e <pid_output_yaw+0x2>
     aca:	b0 93 3f 02 	sts	0x023F, r27	; 0x80023f <pid_output_yaw+0x3>
     ace:	80 2f       	mov	r24, r16
     ad0:	91 2f       	mov	r25, r17
     ad2:	ae 81       	ldd	r26, Y+6	; 0x06
     ad4:	bd 81       	ldd	r27, Y+5	; 0x05
     ad6:	80 93 a0 02 	sts	0x02A0, r24	; 0x8002a0 <pid_last_yaw_d_error>
     ada:	90 93 a1 02 	sts	0x02A1, r25	; 0x8002a1 <pid_last_yaw_d_error+0x1>
     ade:	a0 93 a2 02 	sts	0x02A2, r26	; 0x8002a2 <pid_last_yaw_d_error+0x2>
     ae2:	b0 93 a3 02 	sts	0x02A3, r27	; 0x8002a3 <pid_last_yaw_d_error+0x3>
     ae6:	26 96       	adiw	r28, 0x06	; 6
     ae8:	0f b6       	in	r0, 0x3f	; 63
     aea:	f8 94       	cli
     aec:	de bf       	out	0x3e, r29	; 62
     aee:	0f be       	out	0x3f, r0	; 63
     af0:	cd bf       	out	0x3d, r28	; 61
     af2:	df 91       	pop	r29
     af4:	cf 91       	pop	r28
     af6:	1f 91       	pop	r17
     af8:	0f 91       	pop	r16
     afa:	ff 90       	pop	r15
     afc:	ef 90       	pop	r14
     afe:	df 90       	pop	r13
     b00:	cf 90       	pop	r12
     b02:	08 95       	ret
     b04:	20 e0       	ldi	r18, 0x00	; 0
     b06:	30 e0       	ldi	r19, 0x00	; 0
     b08:	46 e1       	ldi	r20, 0x16	; 22
     b0a:	53 ec       	ldi	r21, 0xC3	; 195
     b0c:	c9 82       	std	Y+1, r12	; 0x01
     b0e:	da 82       	std	Y+2, r13	; 0x02
     b10:	eb 82       	std	Y+3, r14	; 0x03
     b12:	fc 82       	std	Y+4, r15	; 0x04
     b14:	69 81       	ldd	r22, Y+1	; 0x01
     b16:	7a 81       	ldd	r23, Y+2	; 0x02
     b18:	8b 81       	ldd	r24, Y+3	; 0x03
     b1a:	9c 81       	ldd	r25, Y+4	; 0x04
     b1c:	0e 94 e0 0f 	call	0x1fc0	; 0x1fc0 <__cmpsf2>
     b20:	88 23       	and	r24, r24
     b22:	6c f0       	brlt	.+26     	; 0xb3e <__stack+0x23f>
     b24:	8c 2d       	mov	r24, r12
     b26:	9d 2d       	mov	r25, r13
     b28:	ae 2d       	mov	r26, r14
     b2a:	bf 2d       	mov	r27, r15
     b2c:	80 93 98 02 	sts	0x0298, r24	; 0x800298 <pid_i_mem_roll>
     b30:	90 93 99 02 	sts	0x0299, r25	; 0x800299 <pid_i_mem_roll+0x1>
     b34:	a0 93 9a 02 	sts	0x029A, r26	; 0x80029a <pid_i_mem_roll+0x2>
     b38:	b0 93 9b 02 	sts	0x029B, r27	; 0x80029b <pid_i_mem_roll+0x3>
     b3c:	9f cd       	rjmp	.-1218   	; 0x67c <calculate_pid+0xd0>
     b3e:	80 e0       	ldi	r24, 0x00	; 0
     b40:	90 e0       	ldi	r25, 0x00	; 0
     b42:	a6 e1       	ldi	r26, 0x16	; 22
     b44:	b3 ec       	ldi	r27, 0xC3	; 195
     b46:	80 93 98 02 	sts	0x0298, r24	; 0x800298 <pid_i_mem_roll>
     b4a:	90 93 99 02 	sts	0x0299, r25	; 0x800299 <pid_i_mem_roll+0x1>
     b4e:	a0 93 9a 02 	sts	0x029A, r26	; 0x80029a <pid_i_mem_roll+0x2>
     b52:	b0 93 9b 02 	sts	0x029B, r27	; 0x80029b <pid_i_mem_roll+0x3>
     b56:	92 cd       	rjmp	.-1244   	; 0x67c <calculate_pid+0xd0>
     b58:	20 e0       	ldi	r18, 0x00	; 0
     b5a:	30 e0       	ldi	r19, 0x00	; 0
     b5c:	46 e1       	ldi	r20, 0x16	; 22
     b5e:	53 ec       	ldi	r21, 0xC3	; 195
     b60:	c9 82       	std	Y+1, r12	; 0x01
     b62:	da 82       	std	Y+2, r13	; 0x02
     b64:	eb 82       	std	Y+3, r14	; 0x03
     b66:	fc 82       	std	Y+4, r15	; 0x04
     b68:	69 81       	ldd	r22, Y+1	; 0x01
     b6a:	7a 81       	ldd	r23, Y+2	; 0x02
     b6c:	8b 81       	ldd	r24, Y+3	; 0x03
     b6e:	9c 81       	ldd	r25, Y+4	; 0x04
     b70:	0e 94 e0 0f 	call	0x1fc0	; 0x1fc0 <__cmpsf2>
     b74:	88 23       	and	r24, r24
     b76:	6c f0       	brlt	.+26     	; 0xb92 <__stack+0x293>
     b78:	8c 2d       	mov	r24, r12
     b7a:	9d 2d       	mov	r25, r13
     b7c:	ae 2d       	mov	r26, r14
     b7e:	bf 2d       	mov	r27, r15
     b80:	80 93 ed 01 	sts	0x01ED, r24	; 0x8001ed <pid_output_roll>
     b84:	90 93 ee 01 	sts	0x01EE, r25	; 0x8001ee <pid_output_roll+0x1>
     b88:	a0 93 ef 01 	sts	0x01EF, r26	; 0x8001ef <pid_output_roll+0x2>
     b8c:	b0 93 f0 01 	sts	0x01F0, r27	; 0x8001f0 <pid_output_roll+0x3>
     b90:	f4 cd       	rjmp	.-1048   	; 0x77a <calculate_pid+0x1ce>
     b92:	80 e0       	ldi	r24, 0x00	; 0
     b94:	90 e0       	ldi	r25, 0x00	; 0
     b96:	a6 e1       	ldi	r26, 0x16	; 22
     b98:	b3 ec       	ldi	r27, 0xC3	; 195
     b9a:	80 93 ed 01 	sts	0x01ED, r24	; 0x8001ed <pid_output_roll>
     b9e:	90 93 ee 01 	sts	0x01EE, r25	; 0x8001ee <pid_output_roll+0x1>
     ba2:	a0 93 ef 01 	sts	0x01EF, r26	; 0x8001ef <pid_output_roll+0x2>
     ba6:	b0 93 f0 01 	sts	0x01F0, r27	; 0x8001f0 <pid_output_roll+0x3>
     baa:	e7 cd       	rjmp	.-1074   	; 0x77a <calculate_pid+0x1ce>
     bac:	20 e0       	ldi	r18, 0x00	; 0
     bae:	30 e0       	ldi	r19, 0x00	; 0
     bb0:	46 e1       	ldi	r20, 0x16	; 22
     bb2:	53 ec       	ldi	r21, 0xC3	; 195
     bb4:	c9 82       	std	Y+1, r12	; 0x01
     bb6:	da 82       	std	Y+2, r13	; 0x02
     bb8:	eb 82       	std	Y+3, r14	; 0x03
     bba:	fc 82       	std	Y+4, r15	; 0x04
     bbc:	69 81       	ldd	r22, Y+1	; 0x01
     bbe:	7a 81       	ldd	r23, Y+2	; 0x02
     bc0:	8b 81       	ldd	r24, Y+3	; 0x03
     bc2:	9c 81       	ldd	r25, Y+4	; 0x04
     bc4:	0e 94 e0 0f 	call	0x1fc0	; 0x1fc0 <__cmpsf2>
     bc8:	88 23       	and	r24, r24
     bca:	6c f0       	brlt	.+26     	; 0xbe6 <__stack+0x2e7>
     bcc:	8c 2d       	mov	r24, r12
     bce:	9d 2d       	mov	r25, r13
     bd0:	ae 2d       	mov	r26, r14
     bd2:	bf 2d       	mov	r27, r15
     bd4:	80 93 56 02 	sts	0x0256, r24	; 0x800256 <pid_i_mem_pitch>
     bd8:	90 93 57 02 	sts	0x0257, r25	; 0x800257 <pid_i_mem_pitch+0x1>
     bdc:	a0 93 58 02 	sts	0x0258, r26	; 0x800258 <pid_i_mem_pitch+0x2>
     be0:	b0 93 59 02 	sts	0x0259, r27	; 0x800259 <pid_i_mem_pitch+0x3>
     be4:	31 ce       	rjmp	.-926    	; 0x848 <calculate_pid+0x29c>
     be6:	80 e0       	ldi	r24, 0x00	; 0
     be8:	90 e0       	ldi	r25, 0x00	; 0
     bea:	a6 e1       	ldi	r26, 0x16	; 22
     bec:	b3 ec       	ldi	r27, 0xC3	; 195
     bee:	80 93 56 02 	sts	0x0256, r24	; 0x800256 <pid_i_mem_pitch>
     bf2:	90 93 57 02 	sts	0x0257, r25	; 0x800257 <pid_i_mem_pitch+0x1>
     bf6:	a0 93 58 02 	sts	0x0258, r26	; 0x800258 <pid_i_mem_pitch+0x2>
     bfa:	b0 93 59 02 	sts	0x0259, r27	; 0x800259 <pid_i_mem_pitch+0x3>
     bfe:	24 ce       	rjmp	.-952    	; 0x848 <calculate_pid+0x29c>
     c00:	20 e0       	ldi	r18, 0x00	; 0
     c02:	30 e0       	ldi	r19, 0x00	; 0
     c04:	46 e1       	ldi	r20, 0x16	; 22
     c06:	53 ec       	ldi	r21, 0xC3	; 195
     c08:	c9 82       	std	Y+1, r12	; 0x01
     c0a:	da 82       	std	Y+2, r13	; 0x02
     c0c:	eb 82       	std	Y+3, r14	; 0x03
     c0e:	fc 82       	std	Y+4, r15	; 0x04
     c10:	69 81       	ldd	r22, Y+1	; 0x01
     c12:	7a 81       	ldd	r23, Y+2	; 0x02
     c14:	8b 81       	ldd	r24, Y+3	; 0x03
     c16:	9c 81       	ldd	r25, Y+4	; 0x04
     c18:	0e 94 e0 0f 	call	0x1fc0	; 0x1fc0 <__cmpsf2>
     c1c:	88 23       	and	r24, r24
     c1e:	6c f0       	brlt	.+26     	; 0xc3a <__stack+0x33b>
     c20:	8c 2d       	mov	r24, r12
     c22:	9d 2d       	mov	r25, r13
     c24:	ae 2d       	mov	r26, r14
     c26:	bf 2d       	mov	r27, r15
     c28:	80 93 72 02 	sts	0x0272, r24	; 0x800272 <pid_output_pitch>
     c2c:	90 93 73 02 	sts	0x0273, r25	; 0x800273 <pid_output_pitch+0x1>
     c30:	a0 93 74 02 	sts	0x0274, r26	; 0x800274 <pid_output_pitch+0x2>
     c34:	b0 93 75 02 	sts	0x0275, r27	; 0x800275 <pid_output_pitch+0x3>
     c38:	86 ce       	rjmp	.-756    	; 0x946 <__stack+0x47>
     c3a:	80 e0       	ldi	r24, 0x00	; 0
     c3c:	90 e0       	ldi	r25, 0x00	; 0
     c3e:	a6 e1       	ldi	r26, 0x16	; 22
     c40:	b3 ec       	ldi	r27, 0xC3	; 195
     c42:	80 93 72 02 	sts	0x0272, r24	; 0x800272 <pid_output_pitch>
     c46:	90 93 73 02 	sts	0x0273, r25	; 0x800273 <pid_output_pitch+0x1>
     c4a:	a0 93 74 02 	sts	0x0274, r26	; 0x800274 <pid_output_pitch+0x2>
     c4e:	b0 93 75 02 	sts	0x0275, r27	; 0x800275 <pid_output_pitch+0x3>
     c52:	79 ce       	rjmp	.-782    	; 0x946 <__stack+0x47>
     c54:	20 e0       	ldi	r18, 0x00	; 0
     c56:	30 e0       	ldi	r19, 0x00	; 0
     c58:	46 e1       	ldi	r20, 0x16	; 22
     c5a:	53 ec       	ldi	r21, 0xC3	; 195
     c5c:	c9 82       	std	Y+1, r12	; 0x01
     c5e:	da 82       	std	Y+2, r13	; 0x02
     c60:	eb 82       	std	Y+3, r14	; 0x03
     c62:	fc 82       	std	Y+4, r15	; 0x04
     c64:	69 81       	ldd	r22, Y+1	; 0x01
     c66:	7a 81       	ldd	r23, Y+2	; 0x02
     c68:	8b 81       	ldd	r24, Y+3	; 0x03
     c6a:	9c 81       	ldd	r25, Y+4	; 0x04
     c6c:	0e 94 e0 0f 	call	0x1fc0	; 0x1fc0 <__cmpsf2>
     c70:	88 23       	and	r24, r24
     c72:	6c f0       	brlt	.+26     	; 0xc8e <__stack+0x38f>
     c74:	8c 2d       	mov	r24, r12
     c76:	9d 2d       	mov	r25, r13
     c78:	ae 2d       	mov	r26, r14
     c7a:	bf 2d       	mov	r27, r15
     c7c:	80 93 a4 02 	sts	0x02A4, r24	; 0x8002a4 <pid_i_mem_yaw>
     c80:	90 93 a5 02 	sts	0x02A5, r25	; 0x8002a5 <pid_i_mem_yaw+0x1>
     c84:	a0 93 a6 02 	sts	0x02A6, r26	; 0x8002a6 <pid_i_mem_yaw+0x2>
     c88:	b0 93 a7 02 	sts	0x02A7, r27	; 0x8002a7 <pid_i_mem_yaw+0x3>
     c8c:	cb ce       	rjmp	.-618    	; 0xa24 <__stack+0x125>
     c8e:	80 e0       	ldi	r24, 0x00	; 0
     c90:	90 e0       	ldi	r25, 0x00	; 0
     c92:	a6 e1       	ldi	r26, 0x16	; 22
     c94:	b3 ec       	ldi	r27, 0xC3	; 195
     c96:	80 93 a4 02 	sts	0x02A4, r24	; 0x8002a4 <pid_i_mem_yaw>
     c9a:	90 93 a5 02 	sts	0x02A5, r25	; 0x8002a5 <pid_i_mem_yaw+0x1>
     c9e:	a0 93 a6 02 	sts	0x02A6, r26	; 0x8002a6 <pid_i_mem_yaw+0x2>
     ca2:	b0 93 a7 02 	sts	0x02A7, r27	; 0x8002a7 <pid_i_mem_yaw+0x3>
     ca6:	be ce       	rjmp	.-644    	; 0xa24 <__stack+0x125>
     ca8:	20 e0       	ldi	r18, 0x00	; 0
     caa:	30 e0       	ldi	r19, 0x00	; 0
     cac:	46 e1       	ldi	r20, 0x16	; 22
     cae:	53 ec       	ldi	r21, 0xC3	; 195
     cb0:	c9 82       	std	Y+1, r12	; 0x01
     cb2:	da 82       	std	Y+2, r13	; 0x02
     cb4:	eb 82       	std	Y+3, r14	; 0x03
     cb6:	fc 82       	std	Y+4, r15	; 0x04
     cb8:	69 81       	ldd	r22, Y+1	; 0x01
     cba:	7a 81       	ldd	r23, Y+2	; 0x02
     cbc:	8b 81       	ldd	r24, Y+3	; 0x03
     cbe:	9c 81       	ldd	r25, Y+4	; 0x04
     cc0:	0e 94 e0 0f 	call	0x1fc0	; 0x1fc0 <__cmpsf2>
     cc4:	88 23       	and	r24, r24
     cc6:	6c f0       	brlt	.+26     	; 0xce2 <__stack+0x3e3>
     cc8:	8c 2d       	mov	r24, r12
     cca:	9d 2d       	mov	r25, r13
     ccc:	ae 2d       	mov	r26, r14
     cce:	bf 2d       	mov	r27, r15
     cd0:	80 93 3c 02 	sts	0x023C, r24	; 0x80023c <pid_output_yaw>
     cd4:	90 93 3d 02 	sts	0x023D, r25	; 0x80023d <pid_output_yaw+0x1>
     cd8:	a0 93 3e 02 	sts	0x023E, r26	; 0x80023e <pid_output_yaw+0x2>
     cdc:	b0 93 3f 02 	sts	0x023F, r27	; 0x80023f <pid_output_yaw+0x3>
     ce0:	f6 ce       	rjmp	.-532    	; 0xace <__stack+0x1cf>
     ce2:	80 e0       	ldi	r24, 0x00	; 0
     ce4:	90 e0       	ldi	r25, 0x00	; 0
     ce6:	a6 e1       	ldi	r26, 0x16	; 22
     ce8:	b3 ec       	ldi	r27, 0xC3	; 195
     cea:	80 93 3c 02 	sts	0x023C, r24	; 0x80023c <pid_output_yaw>
     cee:	90 93 3d 02 	sts	0x023D, r25	; 0x80023d <pid_output_yaw+0x1>
     cf2:	a0 93 3e 02 	sts	0x023E, r26	; 0x80023e <pid_output_yaw+0x2>
     cf6:	b0 93 3f 02 	sts	0x023F, r27	; 0x80023f <pid_output_yaw+0x3>
     cfa:	e9 ce       	rjmp	.-558    	; 0xace <__stack+0x1cf>

00000cfc <main>:
     cfc:	cd b7       	in	r28, 0x3d	; 61
     cfe:	de b7       	in	r29, 0x3e	; 62
     d00:	6d 97       	sbiw	r28, 0x1d	; 29
     d02:	0f b6       	in	r0, 0x3f	; 63
     d04:	f8 94       	cli
     d06:	de bf       	out	0x3e, r29	; 62
     d08:	0f be       	out	0x3f, r0	; 63
     d0a:	cd bf       	out	0x3d, r28	; 61
     d0c:	0f b6       	in	r0, 0x3f	; 63
     d0e:	f8 94       	cli
     d10:	a8 95       	wdr
     d12:	80 91 60 00 	lds	r24, 0x0060	; 0x800060 <__TEXT_REGION_LENGTH__+0x7e0060>
     d16:	88 61       	ori	r24, 0x18	; 24
     d18:	80 93 60 00 	sts	0x0060, r24	; 0x800060 <__TEXT_REGION_LENGTH__+0x7e0060>
     d1c:	10 92 60 00 	sts	0x0060, r1	; 0x800060 <__TEXT_REGION_LENGTH__+0x7e0060>
     d20:	0f be       	out	0x3f, r0	; 63
     d22:	84 b1       	in	r24, 0x04	; 4
     d24:	89 62       	ori	r24, 0x29	; 41
     d26:	84 b9       	out	0x04, r24	; 4
     d28:	8a b1       	in	r24, 0x0a	; 10
     d2a:	88 66       	ori	r24, 0x68	; 104
     d2c:	8a b9       	out	0x0a, r24	; 10
     d2e:	0e 94 33 02 	call	0x466	; 0x466 <setup_timers>
     d32:	0e 94 4c 02 	call	0x498	; 0x498 <setup_interrupts>
     d36:	24 b7       	in	r18, 0x34	; 52
     d38:	2b 8f       	std	Y+27, r18	; 0x1b
     d3a:	84 b7       	in	r24, 0x34	; 52
     d3c:	88 7f       	andi	r24, 0xF8	; 248
     d3e:	84 bf       	out	0x34, r24	; 52
     d40:	28 30       	cpi	r18, 0x08	; 8
     d42:	b9 f1       	breq	.+110    	; 0xdb2 <main+0xb6>
     d44:	0e 94 11 0e 	call	0x1c22	; 0x1c22 <setup_uart>
     d48:	88 e1       	ldi	r24, 0x18	; 24
     d4a:	91 e0       	ldi	r25, 0x01	; 1
     d4c:	0e 94 29 0e 	call	0x1c52	; 0x1c52 <serial_write>
     d50:	0e 94 bf 00 	call	0x17e	; 0x17e <i2c_init>
     d54:	80 ed       	ldi	r24, 0xD0	; 208
     d56:	0e 94 c5 00 	call	0x18a	; 0x18a <i2c_start>
     d5a:	85 e7       	ldi	r24, 0x75	; 117
     d5c:	0e 94 21 01 	call	0x242	; 0x242 <i2c_write>
     d60:	81 ed       	ldi	r24, 0xD1	; 209
     d62:	0e 94 15 01 	call	0x22a	; 0x22a <i2c_rep_start>
     d66:	0e 94 3f 01 	call	0x27e	; 0x27e <i2c_readNak>
     d6a:	18 2f       	mov	r17, r24
     d6c:	0e 94 18 01 	call	0x230	; 0x230 <i2c_stop>
     d70:	89 e2       	ldi	r24, 0x29	; 41
     d72:	91 e0       	ldi	r25, 0x01	; 1
     d74:	0e 94 29 0e 	call	0x1c52	; 0x1c52 <serial_write>
     d78:	81 2f       	mov	r24, r17
     d7a:	90 e0       	ldi	r25, 0x00	; 0
     d7c:	0e 94 a1 0e 	call	0x1d42	; 0x1d42 <put_int>
     d80:	87 ea       	ldi	r24, 0xA7	; 167
     d82:	91 e0       	ldi	r25, 0x01	; 1
     d84:	0e 94 29 0e 	call	0x1c52	; 0x1c52 <serial_write>
     d88:	10 37       	cpi	r17, 0x70	; 112
     d8a:	09 f4       	brne	.+2      	; 0xd8e <main+0x92>
     d8c:	42 c0       	rjmp	.+132    	; 0xe12 <main+0x116>
     d8e:	82 e3       	ldi	r24, 0x32	; 50
     d90:	91 e0       	ldi	r25, 0x01	; 1
     d92:	0e 94 29 0e 	call	0x1c52	; 0x1c52 <serial_write>
     d96:	90 e2       	ldi	r25, 0x20	; 32
     d98:	3f ef       	ldi	r19, 0xFF	; 255
     d9a:	40 e7       	ldi	r20, 0x70	; 112
     d9c:	52 e0       	ldi	r21, 0x02	; 2
     d9e:	31 50       	subi	r19, 0x01	; 1
     da0:	40 40       	sbci	r20, 0x00	; 0
     da2:	50 40       	sbci	r21, 0x00	; 0
     da4:	e1 f7       	brne	.-8      	; 0xd9e <main+0xa2>
     da6:	00 c0       	rjmp	.+0      	; 0xda8 <main+0xac>
     da8:	00 00       	nop
     daa:	85 b1       	in	r24, 0x05	; 5
     dac:	89 27       	eor	r24, r25
     dae:	85 b9       	out	0x05, r24	; 5
     db0:	f3 cf       	rjmp	.-26     	; 0xd98 <main+0x9c>
     db2:	ee e2       	ldi	r30, 0x2E	; 46
     db4:	f2 e0       	ldi	r31, 0x02	; 2
     db6:	11 82       	std	Z+1, r1	; 0x01
     db8:	10 82       	st	Z, r1
     dba:	13 82       	std	Z+3, r1	; 0x03
     dbc:	12 82       	std	Z+2, r1	; 0x02
     dbe:	15 82       	std	Z+5, r1	; 0x05
     dc0:	14 82       	std	Z+4, r1	; 0x04
     dc2:	17 82       	std	Z+7, r1	; 0x07
     dc4:	16 82       	std	Z+6, r1	; 0x06
     dc6:	0e 94 bf 00 	call	0x17e	; 0x17e <i2c_init>
     dca:	0e 94 5c 02 	call	0x4b8	; 0x4b8 <setup_gyro>
     dce:	60 e0       	ldi	r22, 0x00	; 0
     dd0:	80 e0       	ldi	r24, 0x00	; 0
     dd2:	0e 94 53 00 	call	0xa6	; 0xa6 <adc_init>
     dd6:	78 94       	sei
     dd8:	88 e1       	ldi	r24, 0x18	; 24
     dda:	9b e0       	ldi	r25, 0x0B	; 11
     ddc:	0f b6       	in	r0, 0x3f	; 63
     dde:	f8 94       	cli
     de0:	a8 95       	wdr
     de2:	80 93 60 00 	sts	0x0060, r24	; 0x800060 <__TEXT_REGION_LENGTH__+0x7e0060>
     de6:	0f be       	out	0x3f, r0	; 63
     de8:	90 93 60 00 	sts	0x0060, r25	; 0x800060 <__TEXT_REGION_LENGTH__+0x7e0060>
     dec:	0f 2e       	mov	r0, r31
     dee:	fc e1       	ldi	r31, 0x1C	; 28
     df0:	8f 2e       	mov	r8, r31
     df2:	f2 e0       	ldi	r31, 0x02	; 2
     df4:	9f 2e       	mov	r9, r31
     df6:	f0 2d       	mov	r31, r0
     df8:	0f 2e       	mov	r0, r31
     dfa:	f4 ee       	ldi	r31, 0xE4	; 228
     dfc:	2f 2e       	mov	r2, r31
     dfe:	f5 e0       	ldi	r31, 0x05	; 5
     e00:	3f 2e       	mov	r3, r31
     e02:	f0 2d       	mov	r31, r0
     e04:	0f 2e       	mov	r0, r31
     e06:	f8 ee       	ldi	r31, 0xE8	; 232
     e08:	cf 2e       	mov	r12, r31
     e0a:	f3 e0       	ldi	r31, 0x03	; 3
     e0c:	df 2e       	mov	r13, r31
     e0e:	f0 2d       	mov	r31, r0
     e10:	58 c3       	rjmp	.+1712   	; 0x14c2 <main+0x7c6>
     e12:	8e e3       	ldi	r24, 0x3E	; 62
     e14:	91 e0       	ldi	r25, 0x01	; 1
     e16:	0e 94 29 0e 	call	0x1c52	; 0x1c52 <serial_write>
     e1a:	0e 94 5c 02 	call	0x4b8	; 0x4b8 <setup_gyro>
     e1e:	ee e2       	ldi	r30, 0x2E	; 46
     e20:	f2 e0       	ldi	r31, 0x02	; 2
     e22:	11 82       	std	Z+1, r1	; 0x01
     e24:	10 82       	st	Z, r1
     e26:	13 82       	std	Z+3, r1	; 0x03
     e28:	12 82       	std	Z+2, r1	; 0x02
     e2a:	15 82       	std	Z+5, r1	; 0x05
     e2c:	14 82       	std	Z+4, r1	; 0x04
     e2e:	10 92 e6 01 	sts	0x01E6, r1	; 0x8001e6 <start+0x1>
     e32:	10 92 e5 01 	sts	0x01E5, r1	; 0x8001e5 <start>
     e36:	8c e0       	ldi	r24, 0x0C	; 12
     e38:	fe 01       	movw	r30, r28
     e3a:	31 96       	adiw	r30, 0x01	; 1
     e3c:	df 01       	movw	r26, r30
     e3e:	1d 92       	st	X+, r1
     e40:	8a 95       	dec	r24
     e42:	e9 f7       	brne	.-6      	; 0xe3e <main+0x142>
     e44:	8e e4       	ldi	r24, 0x4E	; 78
     e46:	91 e0       	ldi	r25, 0x01	; 1
     e48:	0e 94 29 0e 	call	0x1c52	; 0x1c52 <serial_write>
     e4c:	10 92 55 02 	sts	0x0255, r1	; 0x800255 <cal_int+0x1>
     e50:	10 92 54 02 	sts	0x0254, r1	; 0x800254 <cal_int>
     e54:	08 ec       	ldi	r16, 0xC8	; 200
     e56:	10 e0       	ldi	r17, 0x00	; 0
     e58:	68 94       	set
     e5a:	ff 24       	eor	r15, r15
     e5c:	f5 f8       	bld	r15, 5
     e5e:	13 c0       	rjmp	.+38     	; 0xe86 <main+0x18a>
     e60:	ef e0       	ldi	r30, 0x0F	; 15
     e62:	fe e0       	ldi	r31, 0x0E	; 14
     e64:	31 97       	sbiw	r30, 0x01	; 1
     e66:	f1 f7       	brne	.-4      	; 0xe64 <main+0x168>
     e68:	00 c0       	rjmp	.+0      	; 0xe6a <main+0x16e>
     e6a:	00 00       	nop
     e6c:	80 91 54 02 	lds	r24, 0x0254	; 0x800254 <cal_int>
     e70:	90 91 55 02 	lds	r25, 0x0255	; 0x800255 <cal_int+0x1>
     e74:	01 96       	adiw	r24, 0x01	; 1
     e76:	90 93 55 02 	sts	0x0255, r25	; 0x800255 <cal_int+0x1>
     e7a:	80 93 54 02 	sts	0x0254, r24	; 0x800254 <cal_int>
     e7e:	80 3d       	cpi	r24, 0xD0	; 208
     e80:	97 40       	sbci	r25, 0x07	; 7
     e82:	0c f0       	brlt	.+2      	; 0xe86 <main+0x18a>
     e84:	4c c0       	rjmp	.+152    	; 0xf1e <main+0x222>
     e86:	0e 94 7e 02 	call	0x4fc	; 0x4fc <read_gyro>
     e8a:	80 91 fb 01 	lds	r24, 0x01FB	; 0x8001fb <gyro_pitch>
     e8e:	90 91 fc 01 	lds	r25, 0x01FC	; 0x8001fc <gyro_pitch+0x1>
     e92:	09 2e       	mov	r0, r25
     e94:	00 0c       	add	r0, r0
     e96:	aa 0b       	sbc	r26, r26
     e98:	bb 0b       	sbc	r27, r27
     e9a:	49 81       	ldd	r20, Y+1	; 0x01
     e9c:	5a 81       	ldd	r21, Y+2	; 0x02
     e9e:	6b 81       	ldd	r22, Y+3	; 0x03
     ea0:	7c 81       	ldd	r23, Y+4	; 0x04
     ea2:	84 0f       	add	r24, r20
     ea4:	95 1f       	adc	r25, r21
     ea6:	a6 1f       	adc	r26, r22
     ea8:	b7 1f       	adc	r27, r23
     eaa:	89 83       	std	Y+1, r24	; 0x01
     eac:	9a 83       	std	Y+2, r25	; 0x02
     eae:	ab 83       	std	Y+3, r26	; 0x03
     eb0:	bc 83       	std	Y+4, r27	; 0x04
     eb2:	80 91 84 02 	lds	r24, 0x0284	; 0x800284 <gyro_roll>
     eb6:	90 91 85 02 	lds	r25, 0x0285	; 0x800285 <gyro_roll+0x1>
     eba:	09 2e       	mov	r0, r25
     ebc:	00 0c       	add	r0, r0
     ebe:	aa 0b       	sbc	r26, r26
     ec0:	bb 0b       	sbc	r27, r27
     ec2:	4d 81       	ldd	r20, Y+5	; 0x05
     ec4:	5e 81       	ldd	r21, Y+6	; 0x06
     ec6:	6f 81       	ldd	r22, Y+7	; 0x07
     ec8:	78 85       	ldd	r23, Y+8	; 0x08
     eca:	84 0f       	add	r24, r20
     ecc:	95 1f       	adc	r25, r21
     ece:	a6 1f       	adc	r26, r22
     ed0:	b7 1f       	adc	r27, r23
     ed2:	8d 83       	std	Y+5, r24	; 0x05
     ed4:	9e 83       	std	Y+6, r25	; 0x06
     ed6:	af 83       	std	Y+7, r26	; 0x07
     ed8:	b8 87       	std	Y+8, r27	; 0x08
     eda:	80 91 2a 02 	lds	r24, 0x022A	; 0x80022a <gyro_yaw>
     ede:	90 91 2b 02 	lds	r25, 0x022B	; 0x80022b <gyro_yaw+0x1>
     ee2:	09 2e       	mov	r0, r25
     ee4:	00 0c       	add	r0, r0
     ee6:	aa 0b       	sbc	r26, r26
     ee8:	bb 0b       	sbc	r27, r27
     eea:	49 85       	ldd	r20, Y+9	; 0x09
     eec:	5a 85       	ldd	r21, Y+10	; 0x0a
     eee:	6b 85       	ldd	r22, Y+11	; 0x0b
     ef0:	7c 85       	ldd	r23, Y+12	; 0x0c
     ef2:	84 0f       	add	r24, r20
     ef4:	95 1f       	adc	r25, r21
     ef6:	a6 1f       	adc	r26, r22
     ef8:	b7 1f       	adc	r27, r23
     efa:	89 87       	std	Y+9, r24	; 0x09
     efc:	9a 87       	std	Y+10, r25	; 0x0a
     efe:	ab 87       	std	Y+11, r26	; 0x0b
     f00:	bc 87       	std	Y+12, r27	; 0x0c
     f02:	80 91 54 02 	lds	r24, 0x0254	; 0x800254 <cal_int>
     f06:	90 91 55 02 	lds	r25, 0x0255	; 0x800255 <cal_int+0x1>
     f0a:	b8 01       	movw	r22, r16
     f0c:	0e 94 0f 0f 	call	0x1e1e	; 0x1e1e <__divmodhi4>
     f10:	89 2b       	or	r24, r25
     f12:	09 f4       	brne	.+2      	; 0xf16 <main+0x21a>
     f14:	a5 cf       	rjmp	.-182    	; 0xe60 <main+0x164>
     f16:	85 b1       	in	r24, 0x05	; 5
     f18:	8f 25       	eor	r24, r15
     f1a:	85 b9       	out	0x05, r24	; 5
     f1c:	a1 cf       	rjmp	.-190    	; 0xe60 <main+0x164>
     f1e:	8e 01       	movw	r16, r28
     f20:	0f 5f       	subi	r16, 0xFF	; 255
     f22:	1f 4f       	sbci	r17, 0xFF	; 255
     f24:	0f 2e       	mov	r0, r31
     f26:	fe e2       	ldi	r31, 0x2E	; 46
     f28:	ef 2e       	mov	r14, r31
     f2a:	f2 e0       	ldi	r31, 0x02	; 2
     f2c:	ff 2e       	mov	r15, r31
     f2e:	f0 2d       	mov	r31, r0
     f30:	6e 01       	movw	r12, r28
     f32:	2d e0       	ldi	r18, 0x0D	; 13
     f34:	c2 0e       	add	r12, r18
     f36:	d1 1c       	adc	r13, r1
     f38:	0f 2e       	mov	r0, r31
     f3a:	f0 ed       	ldi	r31, 0xD0	; 208
     f3c:	8f 2e       	mov	r8, r31
     f3e:	f7 e0       	ldi	r31, 0x07	; 7
     f40:	9f 2e       	mov	r9, r31
     f42:	a1 2c       	mov	r10, r1
     f44:	b1 2c       	mov	r11, r1
     f46:	f0 2d       	mov	r31, r0
     f48:	f8 01       	movw	r30, r16
     f4a:	81 91       	ld	r24, Z+
     f4c:	91 91       	ld	r25, Z+
     f4e:	a1 91       	ld	r26, Z+
     f50:	b1 91       	ld	r27, Z+
     f52:	8f 01       	movw	r16, r30
     f54:	8d 87       	std	Y+13, r24	; 0x0d
     f56:	9e 87       	std	Y+14, r25	; 0x0e
     f58:	af 87       	std	Y+15, r26	; 0x0f
     f5a:	b8 8b       	std	Y+16, r27	; 0x10
     f5c:	bc 01       	movw	r22, r24
     f5e:	cd 01       	movw	r24, r26
     f60:	a5 01       	movw	r20, r10
     f62:	94 01       	movw	r18, r8
     f64:	0e 94 23 0f 	call	0x1e46	; 0x1e46 <__divmodsi4>
     f68:	f8 01       	movw	r30, r16
     f6a:	34 97       	sbiw	r30, 0x04	; 4
     f6c:	20 83       	st	Z, r18
     f6e:	31 83       	std	Z+1, r19	; 0x01
     f70:	42 83       	std	Z+2, r20	; 0x02
     f72:	53 83       	std	Z+3, r21	; 0x03
     f74:	d7 01       	movw	r26, r14
     f76:	2d 93       	st	X+, r18
     f78:	3d 93       	st	X+, r19
     f7a:	7d 01       	movw	r14, r26
     f7c:	0c 15       	cp	r16, r12
     f7e:	1d 05       	cpc	r17, r13
     f80:	19 f7       	brne	.-58     	; 0xf48 <main+0x24c>
     f82:	89 e6       	ldi	r24, 0x69	; 105
     f84:	91 e0       	ldi	r25, 0x01	; 1
     f86:	0e 94 29 0e 	call	0x1c52	; 0x1c52 <serial_write>
     f8a:	60 e0       	ldi	r22, 0x00	; 0
     f8c:	80 e0       	ldi	r24, 0x00	; 0
     f8e:	0e 94 53 00 	call	0xa6	; 0xa6 <adc_init>
     f92:	0e 94 79 00 	call	0xf2	; 0xf2 <adc_read>
     f96:	28 2f       	mov	r18, r24
     f98:	39 2f       	mov	r19, r25
     f9a:	30 93 ff 01 	sts	0x01FF, r19	; 0x8001ff <battery_voltage+0x1>
     f9e:	20 93 fe 01 	sts	0x01FE, r18	; 0x8001fe <battery_voltage>
     fa2:	23 3a       	cpi	r18, 0xA3	; 163
     fa4:	32 40       	sbci	r19, 0x02	; 2
     fa6:	c4 f4       	brge	.+48     	; 0xfd8 <main+0x2dc>
     fa8:	8c e8       	ldi	r24, 0x8C	; 140
     faa:	91 e0       	ldi	r25, 0x01	; 1
     fac:	0e 94 29 0e 	call	0x1c52	; 0x1c52 <serial_write>
     fb0:	80 91 fe 01 	lds	r24, 0x01FE	; 0x8001fe <battery_voltage>
     fb4:	90 91 ff 01 	lds	r25, 0x01FF	; 0x8001ff <battery_voltage+0x1>
     fb8:	0e 94 53 0e 	call	0x1ca6	; 0x1ca6 <put_uint>
     fbc:	90 e2       	ldi	r25, 0x20	; 32
     fbe:	ef ef       	ldi	r30, 0xFF	; 255
     fc0:	f3 ec       	ldi	r31, 0xC3	; 195
     fc2:	29 e0       	ldi	r18, 0x09	; 9
     fc4:	e1 50       	subi	r30, 0x01	; 1
     fc6:	f0 40       	sbci	r31, 0x00	; 0
     fc8:	20 40       	sbci	r18, 0x00	; 0
     fca:	e1 f7       	brne	.-8      	; 0xfc4 <main+0x2c8>
     fcc:	00 c0       	rjmp	.+0      	; 0xfce <main+0x2d2>
     fce:	00 00       	nop
     fd0:	85 b1       	in	r24, 0x05	; 5
     fd2:	89 27       	eor	r24, r25
     fd4:	85 b9       	out	0x05, r24	; 5
     fd6:	f3 cf       	rjmp	.-26     	; 0xfbe <main+0x2c2>
     fd8:	78 94       	sei
     fda:	88 ea       	ldi	r24, 0xA8	; 168
     fdc:	91 e0       	ldi	r25, 0x01	; 1
     fde:	0e 94 29 0e 	call	0x1c52	; 0x1c52 <serial_write>
     fe2:	ec e1       	ldi	r30, 0x1C	; 28
     fe4:	f2 e0       	ldi	r31, 0x02	; 2
     fe6:	82 81       	ldd	r24, Z+2	; 0x02
     fe8:	93 81       	ldd	r25, Z+3	; 0x03
     fea:	8e 3d       	cpi	r24, 0xDE	; 222
     fec:	93 40       	sbci	r25, 0x03	; 3
     fee:	d8 f3       	brcs	.-10     	; 0xfe6 <main+0x2ea>
     ff0:	8e eb       	ldi	r24, 0xBE	; 190
     ff2:	91 e0       	ldi	r25, 0x01	; 1
     ff4:	0e 94 29 0e 	call	0x1c52	; 0x1c52 <serial_write>
     ff8:	ef ce       	rjmp	.-546    	; 0xdd8 <main+0xdc>
     ffa:	80 91 7c 02 	lds	r24, 0x027C	; 0x80027c <receiver_input_channel_4>
     ffe:	90 91 7d 02 	lds	r25, 0x027D	; 0x80027d <receiver_input_channel_4+0x1>
    1002:	8b 3a       	cpi	r24, 0xAB	; 171
    1004:	95 40       	sbci	r25, 0x05	; 5
    1006:	0c f4       	brge	.+2      	; 0x100a <main+0x30e>
    1008:	98 c3       	rjmp	.+1840   	; 0x173a <main+0xa3e>
    100a:	e2 e0       	ldi	r30, 0x02	; 2
    100c:	f0 e0       	ldi	r31, 0x00	; 0
    100e:	f0 93 e6 01 	sts	0x01E6, r31	; 0x8001e6 <start+0x1>
    1012:	e0 93 e5 01 	sts	0x01E5, r30	; 0x8001e5 <start>
    1016:	10 92 98 02 	sts	0x0298, r1	; 0x800298 <pid_i_mem_roll>
    101a:	10 92 99 02 	sts	0x0299, r1	; 0x800299 <pid_i_mem_roll+0x1>
    101e:	10 92 9a 02 	sts	0x029A, r1	; 0x80029a <pid_i_mem_roll+0x2>
    1022:	10 92 9b 02 	sts	0x029B, r1	; 0x80029b <pid_i_mem_roll+0x3>
    1026:	10 92 f5 01 	sts	0x01F5, r1	; 0x8001f5 <pid_last_roll_d_error>
    102a:	10 92 f6 01 	sts	0x01F6, r1	; 0x8001f6 <pid_last_roll_d_error+0x1>
    102e:	10 92 f7 01 	sts	0x01F7, r1	; 0x8001f7 <pid_last_roll_d_error+0x2>
    1032:	10 92 f8 01 	sts	0x01F8, r1	; 0x8001f8 <pid_last_roll_d_error+0x3>
    1036:	10 92 56 02 	sts	0x0256, r1	; 0x800256 <pid_i_mem_pitch>
    103a:	10 92 57 02 	sts	0x0257, r1	; 0x800257 <pid_i_mem_pitch+0x1>
    103e:	10 92 58 02 	sts	0x0258, r1	; 0x800258 <pid_i_mem_pitch+0x2>
    1042:	10 92 59 02 	sts	0x0259, r1	; 0x800259 <pid_i_mem_pitch+0x3>
    1046:	10 92 8e 02 	sts	0x028E, r1	; 0x80028e <pid_last_pitch_d_error>
    104a:	10 92 8f 02 	sts	0x028F, r1	; 0x80028f <pid_last_pitch_d_error+0x1>
    104e:	10 92 90 02 	sts	0x0290, r1	; 0x800290 <pid_last_pitch_d_error+0x2>
    1052:	10 92 91 02 	sts	0x0291, r1	; 0x800291 <pid_last_pitch_d_error+0x3>
    1056:	10 92 a4 02 	sts	0x02A4, r1	; 0x8002a4 <pid_i_mem_yaw>
    105a:	10 92 a5 02 	sts	0x02A5, r1	; 0x8002a5 <pid_i_mem_yaw+0x1>
    105e:	10 92 a6 02 	sts	0x02A6, r1	; 0x8002a6 <pid_i_mem_yaw+0x2>
    1062:	10 92 a7 02 	sts	0x02A7, r1	; 0x8002a7 <pid_i_mem_yaw+0x3>
    1066:	10 92 a0 02 	sts	0x02A0, r1	; 0x8002a0 <pid_last_yaw_d_error>
    106a:	10 92 a1 02 	sts	0x02A1, r1	; 0x8002a1 <pid_last_yaw_d_error+0x1>
    106e:	10 92 a2 02 	sts	0x02A2, r1	; 0x8002a2 <pid_last_yaw_d_error+0x2>
    1072:	10 92 a3 02 	sts	0x02A3, r1	; 0x8002a3 <pid_last_yaw_d_error+0x3>
    1076:	80 91 7c 02 	lds	r24, 0x027C	; 0x80027c <receiver_input_channel_4>
    107a:	90 91 7d 02 	lds	r25, 0x027D	; 0x80027d <receiver_input_channel_4+0x1>
    107e:	8f 39       	cpi	r24, 0x9F	; 159
    1080:	97 40       	sbci	r25, 0x07	; 7
    1082:	0c f4       	brge	.+2      	; 0x1086 <main+0x38a>
    1084:	5a c3       	rjmp	.+1716   	; 0x173a <main+0xa3e>
    1086:	10 92 e6 01 	sts	0x01E6, r1	; 0x8001e6 <start+0x1>
    108a:	10 92 e5 01 	sts	0x01E5, r1	; 0x8001e5 <start>
    108e:	55 c3       	rjmp	.+1706   	; 0x173a <main+0xa3e>
    1090:	84 3d       	cpi	r24, 0xD4	; 212
    1092:	35 e0       	ldi	r19, 0x05	; 5
    1094:	93 07       	cpc	r25, r19
    1096:	0c f0       	brlt	.+2      	; 0x109a <main+0x39e>
    1098:	85 c3       	rjmp	.+1802   	; 0x17a4 <main+0xaa8>
    109a:	84 5d       	subi	r24, 0xD4	; 212
    109c:	95 40       	sbci	r25, 0x05	; 5
    109e:	9c 01       	movw	r18, r24
    10a0:	99 0f       	add	r25, r25
    10a2:	44 0b       	sbc	r20, r20
    10a4:	55 0b       	sbc	r21, r21
    10a6:	2d 87       	std	Y+13, r18	; 0x0d
    10a8:	3e 87       	std	Y+14, r19	; 0x0e
    10aa:	4f 87       	std	Y+15, r20	; 0x0f
    10ac:	58 8b       	std	Y+16, r21	; 0x10
    10ae:	ca 01       	movw	r24, r20
    10b0:	b9 01       	movw	r22, r18
    10b2:	0e 94 8f 10 	call	0x211e	; 0x211e <__floatsisf>
    10b6:	20 e0       	ldi	r18, 0x00	; 0
    10b8:	30 e0       	ldi	r19, 0x00	; 0
    10ba:	40 e4       	ldi	r20, 0x40	; 64
    10bc:	50 e4       	ldi	r21, 0x40	; 64
    10be:	6d 87       	std	Y+13, r22	; 0x0d
    10c0:	7e 87       	std	Y+14, r23	; 0x0e
    10c2:	8f 87       	std	Y+15, r24	; 0x0f
    10c4:	98 8b       	std	Y+16, r25	; 0x10
    10c6:	6d 85       	ldd	r22, Y+13	; 0x0d
    10c8:	7e 85       	ldd	r23, Y+14	; 0x0e
    10ca:	8f 85       	ldd	r24, Y+15	; 0x0f
    10cc:	98 89       	ldd	r25, Y+16	; 0x10
    10ce:	0e 94 e5 0f 	call	0x1fca	; 0x1fca <__divsf3>
    10d2:	60 93 86 02 	sts	0x0286, r22	; 0x800286 <pid_roll_setpoint>
    10d6:	70 93 87 02 	sts	0x0287, r23	; 0x800287 <pid_roll_setpoint+0x1>
    10da:	80 93 88 02 	sts	0x0288, r24	; 0x800288 <pid_roll_setpoint+0x2>
    10de:	90 93 89 02 	sts	0x0289, r25	; 0x800289 <pid_roll_setpoint+0x3>
    10e2:	60 c3       	rjmp	.+1728   	; 0x17a4 <main+0xaa8>
    10e4:	84 3d       	cpi	r24, 0xD4	; 212
    10e6:	35 e0       	ldi	r19, 0x05	; 5
    10e8:	93 07       	cpc	r25, r19
    10ea:	0c f0       	brlt	.+2      	; 0x10ee <main+0x3f2>
    10ec:	91 c3       	rjmp	.+1826   	; 0x1810 <main+0xb14>
    10ee:	44 ed       	ldi	r20, 0xD4	; 212
    10f0:	55 e0       	ldi	r21, 0x05	; 5
    10f2:	48 1b       	sub	r20, r24
    10f4:	59 0b       	sbc	r21, r25
    10f6:	9a 01       	movw	r18, r20
    10f8:	55 0f       	add	r21, r21
    10fa:	44 0b       	sbc	r20, r20
    10fc:	55 0b       	sbc	r21, r21
    10fe:	2d 87       	std	Y+13, r18	; 0x0d
    1100:	3e 87       	std	Y+14, r19	; 0x0e
    1102:	4f 87       	std	Y+15, r20	; 0x0f
    1104:	58 8b       	std	Y+16, r21	; 0x10
    1106:	ca 01       	movw	r24, r20
    1108:	b9 01       	movw	r22, r18
    110a:	0e 94 8f 10 	call	0x211e	; 0x211e <__floatsisf>
    110e:	20 e0       	ldi	r18, 0x00	; 0
    1110:	30 e0       	ldi	r19, 0x00	; 0
    1112:	40 e4       	ldi	r20, 0x40	; 64
    1114:	50 e4       	ldi	r21, 0x40	; 64
    1116:	6d 87       	std	Y+13, r22	; 0x0d
    1118:	7e 87       	std	Y+14, r23	; 0x0e
    111a:	8f 87       	std	Y+15, r24	; 0x0f
    111c:	98 8b       	std	Y+16, r25	; 0x10
    111e:	6d 85       	ldd	r22, Y+13	; 0x0d
    1120:	7e 85       	ldd	r23, Y+14	; 0x0e
    1122:	8f 85       	ldd	r24, Y+15	; 0x0f
    1124:	98 89       	ldd	r25, Y+16	; 0x10
    1126:	0e 94 e5 0f 	call	0x1fca	; 0x1fca <__divsf3>
    112a:	60 93 8a 02 	sts	0x028A, r22	; 0x80028a <pid_pitch_setpoint>
    112e:	70 93 8b 02 	sts	0x028B, r23	; 0x80028b <pid_pitch_setpoint+0x1>
    1132:	80 93 8c 02 	sts	0x028C, r24	; 0x80028c <pid_pitch_setpoint+0x2>
    1136:	90 93 8d 02 	sts	0x028D, r25	; 0x80028d <pid_pitch_setpoint+0x3>
    113a:	6a c3       	rjmp	.+1748   	; 0x1810 <main+0xb14>
    113c:	84 3d       	cpi	r24, 0xD4	; 212
    113e:	35 e0       	ldi	r19, 0x05	; 5
    1140:	93 07       	cpc	r25, r19
    1142:	0c f0       	brlt	.+2      	; 0x1146 <main+0x44a>
    1144:	9e c3       	rjmp	.+1852   	; 0x1882 <main+0xb86>
    1146:	44 ed       	ldi	r20, 0xD4	; 212
    1148:	55 e0       	ldi	r21, 0x05	; 5
    114a:	48 1b       	sub	r20, r24
    114c:	59 0b       	sbc	r21, r25
    114e:	9a 01       	movw	r18, r20
    1150:	55 0f       	add	r21, r21
    1152:	44 0b       	sbc	r20, r20
    1154:	55 0b       	sbc	r21, r21
    1156:	2d 87       	std	Y+13, r18	; 0x0d
    1158:	3e 87       	std	Y+14, r19	; 0x0e
    115a:	4f 87       	std	Y+15, r20	; 0x0f
    115c:	58 8b       	std	Y+16, r21	; 0x10
    115e:	ca 01       	movw	r24, r20
    1160:	b9 01       	movw	r22, r18
    1162:	0e 94 8f 10 	call	0x211e	; 0x211e <__floatsisf>
    1166:	20 e0       	ldi	r18, 0x00	; 0
    1168:	30 e0       	ldi	r19, 0x00	; 0
    116a:	40 e4       	ldi	r20, 0x40	; 64
    116c:	50 e4       	ldi	r21, 0x40	; 64
    116e:	6d 87       	std	Y+13, r22	; 0x0d
    1170:	7e 87       	std	Y+14, r23	; 0x0e
    1172:	8f 87       	std	Y+15, r24	; 0x0f
    1174:	98 8b       	std	Y+16, r25	; 0x10
    1176:	6d 85       	ldd	r22, Y+13	; 0x0d
    1178:	7e 85       	ldd	r23, Y+14	; 0x0e
    117a:	8f 85       	ldd	r24, Y+15	; 0x0f
    117c:	98 89       	ldd	r25, Y+16	; 0x10
    117e:	0e 94 e5 0f 	call	0x1fca	; 0x1fca <__divsf3>
    1182:	60 93 7e 02 	sts	0x027E, r22	; 0x80027e <pid_yaw_setpoint>
    1186:	70 93 7f 02 	sts	0x027F, r23	; 0x80027f <pid_yaw_setpoint+0x1>
    118a:	80 93 80 02 	sts	0x0280, r24	; 0x800280 <pid_yaw_setpoint+0x2>
    118e:	90 93 81 02 	sts	0x0281, r25	; 0x800281 <pid_yaw_setpoint+0x3>
    1192:	77 c3       	rjmp	.+1774   	; 0x1882 <main+0xb86>
    1194:	89 30       	cpi	r24, 0x09	; 9
    1196:	97 40       	sbci	r25, 0x07	; 7
    1198:	34 f0       	brlt	.+12     	; 0x11a6 <main+0x4aa>
    119a:	48 e0       	ldi	r20, 0x08	; 8
    119c:	57 e0       	ldi	r21, 0x07	; 7
    119e:	50 93 37 02 	sts	0x0237, r21	; 0x800237 <throttle+0x1>
    11a2:	40 93 36 02 	sts	0x0236, r20	; 0x800236 <throttle>
    11a6:	80 91 36 02 	lds	r24, 0x0236	; 0x800236 <throttle>
    11aa:	90 91 37 02 	lds	r25, 0x0237	; 0x800237 <throttle+0x1>
    11ae:	9c 01       	movw	r18, r24
    11b0:	99 0f       	add	r25, r25
    11b2:	44 0b       	sbc	r20, r20
    11b4:	55 0b       	sbc	r21, r21
    11b6:	2d 87       	std	Y+13, r18	; 0x0d
    11b8:	3e 87       	std	Y+14, r19	; 0x0e
    11ba:	4f 87       	std	Y+15, r20	; 0x0f
    11bc:	58 8b       	std	Y+16, r21	; 0x10
    11be:	ca 01       	movw	r24, r20
    11c0:	b9 01       	movw	r22, r18
    11c2:	0e 94 8f 10 	call	0x211e	; 0x211e <__floatsisf>
    11c6:	16 2f       	mov	r17, r22
    11c8:	07 2f       	mov	r16, r23
    11ca:	f8 2e       	mov	r15, r24
    11cc:	e9 2e       	mov	r14, r25
    11ce:	80 91 72 02 	lds	r24, 0x0272	; 0x800272 <pid_output_pitch>
    11d2:	90 91 73 02 	lds	r25, 0x0273	; 0x800273 <pid_output_pitch+0x1>
    11d6:	a0 91 74 02 	lds	r26, 0x0274	; 0x800274 <pid_output_pitch+0x2>
    11da:	b0 91 75 02 	lds	r27, 0x0275	; 0x800275 <pid_output_pitch+0x3>
    11de:	8d 8b       	std	Y+21, r24	; 0x15
    11e0:	9e 8b       	std	Y+22, r25	; 0x16
    11e2:	af 8b       	std	Y+23, r26	; 0x17
    11e4:	b8 8f       	std	Y+24, r27	; 0x18
    11e6:	9c 01       	movw	r18, r24
    11e8:	ad 01       	movw	r20, r26
    11ea:	1d 87       	std	Y+13, r17	; 0x0d
    11ec:	0e 87       	std	Y+14, r16	; 0x0e
    11ee:	ff 86       	std	Y+15, r15	; 0x0f
    11f0:	e8 8a       	std	Y+16, r14	; 0x10
    11f2:	6d 85       	ldd	r22, Y+13	; 0x0d
    11f4:	7e 85       	ldd	r23, Y+14	; 0x0e
    11f6:	8f 85       	ldd	r24, Y+15	; 0x0f
    11f8:	98 89       	ldd	r25, Y+16	; 0x10
    11fa:	0e 94 73 0f 	call	0x1ee6	; 0x1ee6 <__subsf3>
    11fe:	b6 2e       	mov	r11, r22
    1200:	a7 2e       	mov	r10, r23
    1202:	89 8f       	std	Y+25, r24	; 0x19
    1204:	9a 8f       	std	Y+26, r25	; 0x1a
    1206:	20 91 ed 01 	lds	r18, 0x01ED	; 0x8001ed <pid_output_roll>
    120a:	30 91 ee 01 	lds	r19, 0x01EE	; 0x8001ee <pid_output_roll+0x1>
    120e:	40 91 ef 01 	lds	r20, 0x01EF	; 0x8001ef <pid_output_roll+0x2>
    1212:	50 91 f0 01 	lds	r21, 0x01F0	; 0x8001f0 <pid_output_roll+0x3>
    1216:	29 8b       	std	Y+17, r18	; 0x11
    1218:	3a 8b       	std	Y+18, r19	; 0x12
    121a:	4b 8b       	std	Y+19, r20	; 0x13
    121c:	5c 8b       	std	Y+20, r21	; 0x14
    121e:	40 90 3c 02 	lds	r4, 0x023C	; 0x80023c <pid_output_yaw>
    1222:	50 90 3d 02 	lds	r5, 0x023D	; 0x80023d <pid_output_yaw+0x1>
    1226:	60 90 3e 02 	lds	r6, 0x023E	; 0x80023e <pid_output_yaw+0x2>
    122a:	70 90 3f 02 	lds	r7, 0x023F	; 0x80023f <pid_output_yaw+0x3>
    122e:	6d 87       	std	Y+13, r22	; 0x0d
    1230:	7e 87       	std	Y+14, r23	; 0x0e
    1232:	8f 87       	std	Y+15, r24	; 0x0f
    1234:	98 8b       	std	Y+16, r25	; 0x10
    1236:	6d 85       	ldd	r22, Y+13	; 0x0d
    1238:	7e 85       	ldd	r23, Y+14	; 0x0e
    123a:	8f 85       	ldd	r24, Y+15	; 0x0f
    123c:	98 89       	ldd	r25, Y+16	; 0x10
    123e:	0e 94 74 0f 	call	0x1ee8	; 0x1ee8 <__addsf3>
    1242:	a3 01       	movw	r20, r6
    1244:	92 01       	movw	r18, r4
    1246:	6d 87       	std	Y+13, r22	; 0x0d
    1248:	7e 87       	std	Y+14, r23	; 0x0e
    124a:	8f 87       	std	Y+15, r24	; 0x0f
    124c:	98 8b       	std	Y+16, r25	; 0x10
    124e:	6d 85       	ldd	r22, Y+13	; 0x0d
    1250:	7e 85       	ldd	r23, Y+14	; 0x0e
    1252:	8f 85       	ldd	r24, Y+15	; 0x0f
    1254:	98 89       	ldd	r25, Y+16	; 0x10
    1256:	0e 94 74 0f 	call	0x1ee8	; 0x1ee8 <__addsf3>
    125a:	6d 87       	std	Y+13, r22	; 0x0d
    125c:	7e 87       	std	Y+14, r23	; 0x0e
    125e:	8f 87       	std	Y+15, r24	; 0x0f
    1260:	98 8b       	std	Y+16, r25	; 0x10
    1262:	6d 85       	ldd	r22, Y+13	; 0x0d
    1264:	7e 85       	ldd	r23, Y+14	; 0x0e
    1266:	8f 85       	ldd	r24, Y+15	; 0x0f
    1268:	98 89       	ldd	r25, Y+16	; 0x10
    126a:	0e 94 57 10 	call	0x20ae	; 0x20ae <__fixsfsi>
    126e:	86 2f       	mov	r24, r22
    1270:	97 2f       	mov	r25, r23
    1272:	9d 8f       	std	Y+29, r25	; 0x1d
    1274:	8c 8f       	std	Y+28, r24	; 0x1c
    1276:	90 93 4b 02 	sts	0x024B, r25	; 0x80024b <esc_1+0x1>
    127a:	80 93 4a 02 	sts	0x024A, r24	; 0x80024a <esc_1>
    127e:	2d 89       	ldd	r18, Y+21	; 0x15
    1280:	3e 89       	ldd	r19, Y+22	; 0x16
    1282:	4f 89       	ldd	r20, Y+23	; 0x17
    1284:	58 8d       	ldd	r21, Y+24	; 0x18
    1286:	1d 87       	std	Y+13, r17	; 0x0d
    1288:	0e 87       	std	Y+14, r16	; 0x0e
    128a:	ff 86       	std	Y+15, r15	; 0x0f
    128c:	e8 8a       	std	Y+16, r14	; 0x10
    128e:	6d 85       	ldd	r22, Y+13	; 0x0d
    1290:	7e 85       	ldd	r23, Y+14	; 0x0e
    1292:	8f 85       	ldd	r24, Y+15	; 0x0f
    1294:	98 89       	ldd	r25, Y+16	; 0x10
    1296:	0e 94 74 0f 	call	0x1ee8	; 0x1ee8 <__addsf3>
    129a:	e6 2e       	mov	r14, r22
    129c:	f7 2e       	mov	r15, r23
    129e:	08 2f       	mov	r16, r24
    12a0:	19 2f       	mov	r17, r25
    12a2:	26 2f       	mov	r18, r22
    12a4:	37 2f       	mov	r19, r23
    12a6:	48 2f       	mov	r20, r24
    12a8:	59 2f       	mov	r21, r25
    12aa:	69 89       	ldd	r22, Y+17	; 0x11
    12ac:	7a 89       	ldd	r23, Y+18	; 0x12
    12ae:	8b 89       	ldd	r24, Y+19	; 0x13
    12b0:	9c 89       	ldd	r25, Y+20	; 0x14
    12b2:	0e 94 74 0f 	call	0x1ee8	; 0x1ee8 <__addsf3>
    12b6:	a3 01       	movw	r20, r6
    12b8:	92 01       	movw	r18, r4
    12ba:	6d 87       	std	Y+13, r22	; 0x0d
    12bc:	7e 87       	std	Y+14, r23	; 0x0e
    12be:	8f 87       	std	Y+15, r24	; 0x0f
    12c0:	98 8b       	std	Y+16, r25	; 0x10
    12c2:	6d 85       	ldd	r22, Y+13	; 0x0d
    12c4:	7e 85       	ldd	r23, Y+14	; 0x0e
    12c6:	8f 85       	ldd	r24, Y+15	; 0x0f
    12c8:	98 89       	ldd	r25, Y+16	; 0x10
    12ca:	0e 94 73 0f 	call	0x1ee6	; 0x1ee6 <__subsf3>
    12ce:	6d 87       	std	Y+13, r22	; 0x0d
    12d0:	7e 87       	std	Y+14, r23	; 0x0e
    12d2:	8f 87       	std	Y+15, r24	; 0x0f
    12d4:	98 8b       	std	Y+16, r25	; 0x10
    12d6:	6d 85       	ldd	r22, Y+13	; 0x0d
    12d8:	7e 85       	ldd	r23, Y+14	; 0x0e
    12da:	8f 85       	ldd	r24, Y+15	; 0x0f
    12dc:	98 89       	ldd	r25, Y+16	; 0x10
    12de:	0e 94 57 10 	call	0x20ae	; 0x20ae <__fixsfsi>
    12e2:	26 2f       	mov	r18, r22
    12e4:	37 2f       	mov	r19, r23
    12e6:	3e 8b       	std	Y+22, r19	; 0x16
    12e8:	2d 8b       	std	Y+21, r18	; 0x15
    12ea:	86 2f       	mov	r24, r22
    12ec:	97 2f       	mov	r25, r23
    12ee:	90 93 2d 02 	sts	0x022D, r25	; 0x80022d <esc_2+0x1>
    12f2:	80 93 2c 02 	sts	0x022C, r24	; 0x80022c <esc_2>
    12f6:	29 89       	ldd	r18, Y+17	; 0x11
    12f8:	3a 89       	ldd	r19, Y+18	; 0x12
    12fa:	4b 89       	ldd	r20, Y+19	; 0x13
    12fc:	5c 89       	ldd	r21, Y+20	; 0x14
    12fe:	ed 86       	std	Y+13, r14	; 0x0d
    1300:	fe 86       	std	Y+14, r15	; 0x0e
    1302:	0f 87       	std	Y+15, r16	; 0x0f
    1304:	18 8b       	std	Y+16, r17	; 0x10
    1306:	6d 85       	ldd	r22, Y+13	; 0x0d
    1308:	7e 85       	ldd	r23, Y+14	; 0x0e
    130a:	8f 85       	ldd	r24, Y+15	; 0x0f
    130c:	98 89       	ldd	r25, Y+16	; 0x10
    130e:	0e 94 73 0f 	call	0x1ee6	; 0x1ee6 <__subsf3>
    1312:	a3 01       	movw	r20, r6
    1314:	92 01       	movw	r18, r4
    1316:	6d 87       	std	Y+13, r22	; 0x0d
    1318:	7e 87       	std	Y+14, r23	; 0x0e
    131a:	8f 87       	std	Y+15, r24	; 0x0f
    131c:	98 8b       	std	Y+16, r25	; 0x10
    131e:	6d 85       	ldd	r22, Y+13	; 0x0d
    1320:	7e 85       	ldd	r23, Y+14	; 0x0e
    1322:	8f 85       	ldd	r24, Y+15	; 0x0f
    1324:	98 89       	ldd	r25, Y+16	; 0x10
    1326:	0e 94 74 0f 	call	0x1ee8	; 0x1ee8 <__addsf3>
    132a:	6d 87       	std	Y+13, r22	; 0x0d
    132c:	7e 87       	std	Y+14, r23	; 0x0e
    132e:	8f 87       	std	Y+15, r24	; 0x0f
    1330:	98 8b       	std	Y+16, r25	; 0x10
    1332:	6d 85       	ldd	r22, Y+13	; 0x0d
    1334:	7e 85       	ldd	r23, Y+14	; 0x0e
    1336:	8f 85       	ldd	r24, Y+15	; 0x0f
    1338:	98 89       	ldd	r25, Y+16	; 0x10
    133a:	0e 94 57 10 	call	0x20ae	; 0x20ae <__fixsfsi>
    133e:	06 2f       	mov	r16, r22
    1340:	17 2f       	mov	r17, r23
    1342:	86 2f       	mov	r24, r22
    1344:	97 2f       	mov	r25, r23
    1346:	90 93 7b 02 	sts	0x027B, r25	; 0x80027b <esc_3+0x1>
    134a:	80 93 7a 02 	sts	0x027A, r24	; 0x80027a <esc_3>
    134e:	29 89       	ldd	r18, Y+17	; 0x11
    1350:	3a 89       	ldd	r19, Y+18	; 0x12
    1352:	4b 89       	ldd	r20, Y+19	; 0x13
    1354:	5c 89       	ldd	r21, Y+20	; 0x14
    1356:	bd 86       	std	Y+13, r11	; 0x0d
    1358:	ae 86       	std	Y+14, r10	; 0x0e
    135a:	89 8d       	ldd	r24, Y+25	; 0x19
    135c:	8f 87       	std	Y+15, r24	; 0x0f
    135e:	9a 8d       	ldd	r25, Y+26	; 0x1a
    1360:	98 8b       	std	Y+16, r25	; 0x10
    1362:	6d 85       	ldd	r22, Y+13	; 0x0d
    1364:	7e 85       	ldd	r23, Y+14	; 0x0e
    1366:	8f 85       	ldd	r24, Y+15	; 0x0f
    1368:	98 89       	ldd	r25, Y+16	; 0x10
    136a:	0e 94 73 0f 	call	0x1ee6	; 0x1ee6 <__subsf3>
    136e:	a3 01       	movw	r20, r6
    1370:	92 01       	movw	r18, r4
    1372:	6d 87       	std	Y+13, r22	; 0x0d
    1374:	7e 87       	std	Y+14, r23	; 0x0e
    1376:	8f 87       	std	Y+15, r24	; 0x0f
    1378:	98 8b       	std	Y+16, r25	; 0x10
    137a:	6d 85       	ldd	r22, Y+13	; 0x0d
    137c:	7e 85       	ldd	r23, Y+14	; 0x0e
    137e:	8f 85       	ldd	r24, Y+15	; 0x0f
    1380:	98 89       	ldd	r25, Y+16	; 0x10
    1382:	0e 94 73 0f 	call	0x1ee6	; 0x1ee6 <__subsf3>
    1386:	6d 87       	std	Y+13, r22	; 0x0d
    1388:	7e 87       	std	Y+14, r23	; 0x0e
    138a:	8f 87       	std	Y+15, r24	; 0x0f
    138c:	98 8b       	std	Y+16, r25	; 0x10
    138e:	6d 85       	ldd	r22, Y+13	; 0x0d
    1390:	7e 85       	ldd	r23, Y+14	; 0x0e
    1392:	8f 85       	ldd	r24, Y+15	; 0x0f
    1394:	98 89       	ldd	r25, Y+16	; 0x10
    1396:	0e 94 57 10 	call	0x20ae	; 0x20ae <__fixsfsi>
    139a:	86 2f       	mov	r24, r22
    139c:	97 2f       	mov	r25, r23
    139e:	26 2f       	mov	r18, r22
    13a0:	37 2f       	mov	r19, r23
    13a2:	30 93 93 02 	sts	0x0293, r19	; 0x800293 <esc_4+0x1>
    13a6:	20 93 92 02 	sts	0x0292, r18	; 0x800292 <esc_4>
    13aa:	ac 8d       	ldd	r26, Y+28	; 0x1c
    13ac:	bd 8d       	ldd	r27, Y+29	; 0x1d
    13ae:	aa 31       	cpi	r26, 0x1A	; 26
    13b0:	b4 40       	sbci	r27, 0x04	; 4
    13b2:	34 f4       	brge	.+12     	; 0x13c0 <main+0x6c4>
    13b4:	2a e1       	ldi	r18, 0x1A	; 26
    13b6:	34 e0       	ldi	r19, 0x04	; 4
    13b8:	30 93 4b 02 	sts	0x024B, r19	; 0x80024b <esc_1+0x1>
    13bc:	20 93 4a 02 	sts	0x024A, r18	; 0x80024a <esc_1>
    13c0:	4d 89       	ldd	r20, Y+21	; 0x15
    13c2:	5e 89       	ldd	r21, Y+22	; 0x16
    13c4:	4a 31       	cpi	r20, 0x1A	; 26
    13c6:	54 40       	sbci	r21, 0x04	; 4
    13c8:	34 f4       	brge	.+12     	; 0x13d6 <main+0x6da>
    13ca:	ea e1       	ldi	r30, 0x1A	; 26
    13cc:	f4 e0       	ldi	r31, 0x04	; 4
    13ce:	f0 93 2d 02 	sts	0x022D, r31	; 0x80022d <esc_2+0x1>
    13d2:	e0 93 2c 02 	sts	0x022C, r30	; 0x80022c <esc_2>
    13d6:	0a 31       	cpi	r16, 0x1A	; 26
    13d8:	14 40       	sbci	r17, 0x04	; 4
    13da:	34 f4       	brge	.+12     	; 0x13e8 <main+0x6ec>
    13dc:	2a e1       	ldi	r18, 0x1A	; 26
    13de:	34 e0       	ldi	r19, 0x04	; 4
    13e0:	30 93 7b 02 	sts	0x027B, r19	; 0x80027b <esc_3+0x1>
    13e4:	20 93 7a 02 	sts	0x027A, r18	; 0x80027a <esc_3>
    13e8:	8a 31       	cpi	r24, 0x1A	; 26
    13ea:	94 40       	sbci	r25, 0x04	; 4
    13ec:	34 f4       	brge	.+12     	; 0x13fa <main+0x6fe>
    13ee:	4a e1       	ldi	r20, 0x1A	; 26
    13f0:	54 e0       	ldi	r21, 0x04	; 4
    13f2:	50 93 93 02 	sts	0x0293, r21	; 0x800293 <esc_4+0x1>
    13f6:	40 93 92 02 	sts	0x0292, r20	; 0x800292 <esc_4>
    13fa:	80 91 4a 02 	lds	r24, 0x024A	; 0x80024a <esc_1>
    13fe:	90 91 4b 02 	lds	r25, 0x024B	; 0x80024b <esc_1+0x1>
    1402:	81 34       	cpi	r24, 0x41	; 65
    1404:	96 40       	sbci	r25, 0x06	; 6
    1406:	34 f0       	brlt	.+12     	; 0x1414 <main+0x718>
    1408:	80 e4       	ldi	r24, 0x40	; 64
    140a:	96 e0       	ldi	r25, 0x06	; 6
    140c:	90 93 4b 02 	sts	0x024B, r25	; 0x80024b <esc_1+0x1>
    1410:	80 93 4a 02 	sts	0x024A, r24	; 0x80024a <esc_1>
    1414:	80 91 2c 02 	lds	r24, 0x022C	; 0x80022c <esc_2>
    1418:	90 91 2d 02 	lds	r25, 0x022D	; 0x80022d <esc_2+0x1>
    141c:	81 34       	cpi	r24, 0x41	; 65
    141e:	96 40       	sbci	r25, 0x06	; 6
    1420:	34 f0       	brlt	.+12     	; 0x142e <main+0x732>
    1422:	e0 e4       	ldi	r30, 0x40	; 64
    1424:	f6 e0       	ldi	r31, 0x06	; 6
    1426:	f0 93 2d 02 	sts	0x022D, r31	; 0x80022d <esc_2+0x1>
    142a:	e0 93 2c 02 	sts	0x022C, r30	; 0x80022c <esc_2>
    142e:	80 91 7a 02 	lds	r24, 0x027A	; 0x80027a <esc_3>
    1432:	90 91 7b 02 	lds	r25, 0x027B	; 0x80027b <esc_3+0x1>
    1436:	81 34       	cpi	r24, 0x41	; 65
    1438:	96 40       	sbci	r25, 0x06	; 6
    143a:	34 f0       	brlt	.+12     	; 0x1448 <main+0x74c>
    143c:	20 e4       	ldi	r18, 0x40	; 64
    143e:	36 e0       	ldi	r19, 0x06	; 6
    1440:	30 93 7b 02 	sts	0x027B, r19	; 0x80027b <esc_3+0x1>
    1444:	20 93 7a 02 	sts	0x027A, r18	; 0x80027a <esc_3>
    1448:	80 91 92 02 	lds	r24, 0x0292	; 0x800292 <esc_4>
    144c:	90 91 93 02 	lds	r25, 0x0293	; 0x800293 <esc_4+0x1>
    1450:	81 34       	cpi	r24, 0x41	; 65
    1452:	96 40       	sbci	r25, 0x06	; 6
    1454:	0c f4       	brge	.+2      	; 0x1458 <main+0x75c>
    1456:	37 c2       	rjmp	.+1134   	; 0x18c6 <main+0xbca>
    1458:	40 e4       	ldi	r20, 0x40	; 64
    145a:	56 e0       	ldi	r21, 0x06	; 6
    145c:	50 93 93 02 	sts	0x0293, r21	; 0x800293 <esc_4+0x1>
    1460:	40 93 92 02 	sts	0x0292, r20	; 0x800292 <esc_4>
    1464:	30 c2       	rjmp	.+1120   	; 0x18c6 <main+0xbca>
    1466:	03 96       	adiw	r24, 0x03	; 3
    1468:	38 c2       	rjmp	.+1136   	; 0x18da <main+0xbde>
    146a:	03 96       	adiw	r24, 0x03	; 3
    146c:	45 c2       	rjmp	.+1162   	; 0x18f8 <main+0xbfc>
    146e:	03 96       	adiw	r24, 0x03	; 3
    1470:	52 c2       	rjmp	.+1188   	; 0x1916 <main+0xc1a>
    1472:	03 96       	adiw	r24, 0x03	; 3
    1474:	61 c2       	rjmp	.+1218   	; 0x1938 <main+0xc3c>
    1476:	a8 95       	wdr
    1478:	2b 8d       	ldd	r18, Y+27	; 0x1b
    147a:	20 38       	cpi	r18, 0x80	; 128
    147c:	09 f4       	brne	.+2      	; 0x1480 <main+0x784>
    147e:	88 c2       	rjmp	.+1296   	; 0x1990 <main+0xc94>
    1480:	ef e1       	ldi	r30, 0x1F	; 31
    1482:	40 91 e3 01 	lds	r20, 0x01E3	; 0x8001e3 <tick>
    1486:	50 91 e4 01 	lds	r21, 0x01E4	; 0x8001e4 <tick+0x1>
    148a:	9a 01       	movw	r18, r20
    148c:	a3 e4       	ldi	r26, 0x43	; 67
    148e:	b8 e0       	ldi	r27, 0x08	; 8
    1490:	0e 94 42 0f 	call	0x1e84	; 0x1e84 <__umulhisi3>
    1494:	28 2f       	mov	r18, r24
    1496:	39 2f       	mov	r19, r25
    1498:	ca 01       	movw	r24, r20
    149a:	82 1b       	sub	r24, r18
    149c:	93 0b       	sbc	r25, r19
    149e:	96 95       	lsr	r25
    14a0:	87 95       	ror	r24
    14a2:	28 0f       	add	r18, r24
    14a4:	39 1f       	adc	r19, r25
    14a6:	32 95       	swap	r19
    14a8:	22 95       	swap	r18
    14aa:	2f 70       	andi	r18, 0x0F	; 15
    14ac:	23 27       	eor	r18, r19
    14ae:	3f 70       	andi	r19, 0x0F	; 15
    14b0:	23 27       	eor	r18, r19
    14b2:	e2 9f       	mul	r30, r18
    14b4:	c0 01       	movw	r24, r0
    14b6:	e3 9f       	mul	r30, r19
    14b8:	90 0d       	add	r25, r0
    14ba:	11 24       	eor	r1, r1
    14bc:	48 17       	cp	r20, r24
    14be:	59 07       	cpc	r21, r25
    14c0:	01 f7       	brne	.-64     	; 0x1482 <main+0x786>
    14c2:	d4 01       	movw	r26, r8
    14c4:	12 96       	adiw	r26, 0x02	; 2
    14c6:	8d 91       	ld	r24, X+
    14c8:	9c 91       	ld	r25, X
    14ca:	13 97       	sbiw	r26, 0x03	; 3
    14cc:	96 95       	lsr	r25
    14ce:	87 95       	ror	r24
    14d0:	90 93 83 02 	sts	0x0283, r25	; 0x800283 <receiver_input_channel_1+0x1>
    14d4:	80 93 82 02 	sts	0x0282, r24	; 0x800282 <receiver_input_channel_1>
    14d8:	14 96       	adiw	r26, 0x04	; 4
    14da:	8d 91       	ld	r24, X+
    14dc:	9c 91       	ld	r25, X
    14de:	15 97       	sbiw	r26, 0x05	; 5
    14e0:	96 95       	lsr	r25
    14e2:	87 95       	ror	r24
    14e4:	90 93 45 02 	sts	0x0245, r25	; 0x800245 <receiver_input_channel_2+0x1>
    14e8:	80 93 44 02 	sts	0x0244, r24	; 0x800244 <receiver_input_channel_2>
    14ec:	16 96       	adiw	r26, 0x06	; 6
    14ee:	8d 91       	ld	r24, X+
    14f0:	9c 91       	ld	r25, X
    14f2:	17 97       	sbiw	r26, 0x07	; 7
    14f4:	96 95       	lsr	r25
    14f6:	87 95       	ror	r24
    14f8:	90 93 fa 01 	sts	0x01FA, r25	; 0x8001fa <receiver_input_channel_3+0x1>
    14fc:	80 93 f9 01 	sts	0x01F9, r24	; 0x8001f9 <receiver_input_channel_3>
    1500:	18 96       	adiw	r26, 0x08	; 8
    1502:	8d 91       	ld	r24, X+
    1504:	9c 91       	ld	r25, X
    1506:	96 95       	lsr	r25
    1508:	87 95       	ror	r24
    150a:	90 93 7d 02 	sts	0x027D, r25	; 0x80027d <receiver_input_channel_4+0x1>
    150e:	80 93 7c 02 	sts	0x027C, r24	; 0x80027c <receiver_input_channel_4>
    1512:	0e 94 7e 02 	call	0x4fc	; 0x4fc <read_gyro>
    1516:	80 91 84 02 	lds	r24, 0x0284	; 0x800284 <gyro_roll>
    151a:	90 91 85 02 	lds	r25, 0x0285	; 0x800285 <gyro_roll+0x1>
    151e:	9c 01       	movw	r18, r24
    1520:	99 0f       	add	r25, r25
    1522:	44 0b       	sbc	r20, r20
    1524:	55 0b       	sbc	r21, r21
    1526:	2d 87       	std	Y+13, r18	; 0x0d
    1528:	3e 87       	std	Y+14, r19	; 0x0e
    152a:	4f 87       	std	Y+15, r20	; 0x0f
    152c:	58 8b       	std	Y+16, r21	; 0x10
    152e:	ca 01       	movw	r24, r20
    1530:	b9 01       	movw	r22, r18
    1532:	0e 94 8f 10 	call	0x211e	; 0x211e <__floatsisf>
    1536:	20 e0       	ldi	r18, 0x00	; 0
    1538:	30 e0       	ldi	r19, 0x00	; 0
    153a:	43 e8       	ldi	r20, 0x83	; 131
    153c:	52 e4       	ldi	r21, 0x42	; 66
    153e:	6d 87       	std	Y+13, r22	; 0x0d
    1540:	7e 87       	std	Y+14, r23	; 0x0e
    1542:	8f 87       	std	Y+15, r24	; 0x0f
    1544:	98 8b       	std	Y+16, r25	; 0x10
    1546:	6d 85       	ldd	r22, Y+13	; 0x0d
    1548:	7e 85       	ldd	r23, Y+14	; 0x0e
    154a:	8f 85       	ldd	r24, Y+15	; 0x0f
    154c:	98 89       	ldd	r25, Y+16	; 0x10
    154e:	0e 94 e5 0f 	call	0x1fca	; 0x1fca <__divsf3>
    1552:	2d ec       	ldi	r18, 0xCD	; 205
    1554:	3c ec       	ldi	r19, 0xCC	; 204
    1556:	4c e4       	ldi	r20, 0x4C	; 76
    1558:	5e e3       	ldi	r21, 0x3E	; 62
    155a:	6d 87       	std	Y+13, r22	; 0x0d
    155c:	7e 87       	std	Y+14, r23	; 0x0e
    155e:	8f 87       	std	Y+15, r24	; 0x0f
    1560:	98 8b       	std	Y+16, r25	; 0x10
    1562:	6d 85       	ldd	r22, Y+13	; 0x0d
    1564:	7e 85       	ldd	r23, Y+14	; 0x0e
    1566:	8f 85       	ldd	r24, Y+15	; 0x0f
    1568:	98 89       	ldd	r25, Y+16	; 0x10
    156a:	0e 94 44 11 	call	0x2288	; 0x2288 <__mulsf3>
    156e:	e6 2e       	mov	r14, r22
    1570:	f7 2e       	mov	r15, r23
    1572:	08 2f       	mov	r16, r24
    1574:	19 2f       	mov	r17, r25
    1576:	2d ec       	ldi	r18, 0xCD	; 205
    1578:	3c ec       	ldi	r19, 0xCC	; 204
    157a:	4c e4       	ldi	r20, 0x4C	; 76
    157c:	5f e3       	ldi	r21, 0x3F	; 63
    157e:	60 91 46 02 	lds	r22, 0x0246	; 0x800246 <gyro_roll_input>
    1582:	70 91 47 02 	lds	r23, 0x0247	; 0x800247 <gyro_roll_input+0x1>
    1586:	80 91 48 02 	lds	r24, 0x0248	; 0x800248 <gyro_roll_input+0x2>
    158a:	90 91 49 02 	lds	r25, 0x0249	; 0x800249 <gyro_roll_input+0x3>
    158e:	0e 94 44 11 	call	0x2288	; 0x2288 <__mulsf3>
    1592:	26 2f       	mov	r18, r22
    1594:	37 2f       	mov	r19, r23
    1596:	48 2f       	mov	r20, r24
    1598:	59 2f       	mov	r21, r25
    159a:	ed 86       	std	Y+13, r14	; 0x0d
    159c:	fe 86       	std	Y+14, r15	; 0x0e
    159e:	0f 87       	std	Y+15, r16	; 0x0f
    15a0:	18 8b       	std	Y+16, r17	; 0x10
    15a2:	6d 85       	ldd	r22, Y+13	; 0x0d
    15a4:	7e 85       	ldd	r23, Y+14	; 0x0e
    15a6:	8f 85       	ldd	r24, Y+15	; 0x0f
    15a8:	98 89       	ldd	r25, Y+16	; 0x10
    15aa:	0e 94 74 0f 	call	0x1ee8	; 0x1ee8 <__addsf3>
    15ae:	60 93 46 02 	sts	0x0246, r22	; 0x800246 <gyro_roll_input>
    15b2:	70 93 47 02 	sts	0x0247, r23	; 0x800247 <gyro_roll_input+0x1>
    15b6:	80 93 48 02 	sts	0x0248, r24	; 0x800248 <gyro_roll_input+0x2>
    15ba:	90 93 49 02 	sts	0x0249, r25	; 0x800249 <gyro_roll_input+0x3>
    15be:	80 91 fb 01 	lds	r24, 0x01FB	; 0x8001fb <gyro_pitch>
    15c2:	90 91 fc 01 	lds	r25, 0x01FC	; 0x8001fc <gyro_pitch+0x1>
    15c6:	9c 01       	movw	r18, r24
    15c8:	99 0f       	add	r25, r25
    15ca:	44 0b       	sbc	r20, r20
    15cc:	55 0b       	sbc	r21, r21
    15ce:	2d 87       	std	Y+13, r18	; 0x0d
    15d0:	3e 87       	std	Y+14, r19	; 0x0e
    15d2:	4f 87       	std	Y+15, r20	; 0x0f
    15d4:	58 8b       	std	Y+16, r21	; 0x10
    15d6:	ca 01       	movw	r24, r20
    15d8:	b9 01       	movw	r22, r18
    15da:	0e 94 8f 10 	call	0x211e	; 0x211e <__floatsisf>
    15de:	20 e0       	ldi	r18, 0x00	; 0
    15e0:	30 e0       	ldi	r19, 0x00	; 0
    15e2:	43 e8       	ldi	r20, 0x83	; 131
    15e4:	52 e4       	ldi	r21, 0x42	; 66
    15e6:	6d 87       	std	Y+13, r22	; 0x0d
    15e8:	7e 87       	std	Y+14, r23	; 0x0e
    15ea:	8f 87       	std	Y+15, r24	; 0x0f
    15ec:	98 8b       	std	Y+16, r25	; 0x10
    15ee:	6d 85       	ldd	r22, Y+13	; 0x0d
    15f0:	7e 85       	ldd	r23, Y+14	; 0x0e
    15f2:	8f 85       	ldd	r24, Y+15	; 0x0f
    15f4:	98 89       	ldd	r25, Y+16	; 0x10
    15f6:	0e 94 e5 0f 	call	0x1fca	; 0x1fca <__divsf3>
    15fa:	2d ec       	ldi	r18, 0xCD	; 205
    15fc:	3c ec       	ldi	r19, 0xCC	; 204
    15fe:	4c e4       	ldi	r20, 0x4C	; 76
    1600:	5e e3       	ldi	r21, 0x3E	; 62
    1602:	6d 87       	std	Y+13, r22	; 0x0d
    1604:	7e 87       	std	Y+14, r23	; 0x0e
    1606:	8f 87       	std	Y+15, r24	; 0x0f
    1608:	98 8b       	std	Y+16, r25	; 0x10
    160a:	6d 85       	ldd	r22, Y+13	; 0x0d
    160c:	7e 85       	ldd	r23, Y+14	; 0x0e
    160e:	8f 85       	ldd	r24, Y+15	; 0x0f
    1610:	98 89       	ldd	r25, Y+16	; 0x10
    1612:	0e 94 44 11 	call	0x2288	; 0x2288 <__mulsf3>
    1616:	e6 2e       	mov	r14, r22
    1618:	f7 2e       	mov	r15, r23
    161a:	08 2f       	mov	r16, r24
    161c:	19 2f       	mov	r17, r25
    161e:	2d ec       	ldi	r18, 0xCD	; 205
    1620:	3c ec       	ldi	r19, 0xCC	; 204
    1622:	4c e4       	ldi	r20, 0x4C	; 76
    1624:	5f e3       	ldi	r21, 0x3F	; 63
    1626:	60 91 16 02 	lds	r22, 0x0216	; 0x800216 <gyro_pitch_input>
    162a:	70 91 17 02 	lds	r23, 0x0217	; 0x800217 <gyro_pitch_input+0x1>
    162e:	80 91 18 02 	lds	r24, 0x0218	; 0x800218 <gyro_pitch_input+0x2>
    1632:	90 91 19 02 	lds	r25, 0x0219	; 0x800219 <gyro_pitch_input+0x3>
    1636:	0e 94 44 11 	call	0x2288	; 0x2288 <__mulsf3>
    163a:	26 2f       	mov	r18, r22
    163c:	37 2f       	mov	r19, r23
    163e:	48 2f       	mov	r20, r24
    1640:	59 2f       	mov	r21, r25
    1642:	ed 86       	std	Y+13, r14	; 0x0d
    1644:	fe 86       	std	Y+14, r15	; 0x0e
    1646:	0f 87       	std	Y+15, r16	; 0x0f
    1648:	18 8b       	std	Y+16, r17	; 0x10
    164a:	6d 85       	ldd	r22, Y+13	; 0x0d
    164c:	7e 85       	ldd	r23, Y+14	; 0x0e
    164e:	8f 85       	ldd	r24, Y+15	; 0x0f
    1650:	98 89       	ldd	r25, Y+16	; 0x10
    1652:	0e 94 74 0f 	call	0x1ee8	; 0x1ee8 <__addsf3>
    1656:	60 93 16 02 	sts	0x0216, r22	; 0x800216 <gyro_pitch_input>
    165a:	70 93 17 02 	sts	0x0217, r23	; 0x800217 <gyro_pitch_input+0x1>
    165e:	80 93 18 02 	sts	0x0218, r24	; 0x800218 <gyro_pitch_input+0x2>
    1662:	90 93 19 02 	sts	0x0219, r25	; 0x800219 <gyro_pitch_input+0x3>
    1666:	80 91 2a 02 	lds	r24, 0x022A	; 0x80022a <gyro_yaw>
    166a:	90 91 2b 02 	lds	r25, 0x022B	; 0x80022b <gyro_yaw+0x1>
    166e:	9c 01       	movw	r18, r24
    1670:	99 0f       	add	r25, r25
    1672:	44 0b       	sbc	r20, r20
    1674:	55 0b       	sbc	r21, r21
    1676:	2d 87       	std	Y+13, r18	; 0x0d
    1678:	3e 87       	std	Y+14, r19	; 0x0e
    167a:	4f 87       	std	Y+15, r20	; 0x0f
    167c:	58 8b       	std	Y+16, r21	; 0x10
    167e:	ca 01       	movw	r24, r20
    1680:	b9 01       	movw	r22, r18
    1682:	0e 94 8f 10 	call	0x211e	; 0x211e <__floatsisf>
    1686:	20 e0       	ldi	r18, 0x00	; 0
    1688:	30 e0       	ldi	r19, 0x00	; 0
    168a:	43 e8       	ldi	r20, 0x83	; 131
    168c:	52 e4       	ldi	r21, 0x42	; 66
    168e:	6d 87       	std	Y+13, r22	; 0x0d
    1690:	7e 87       	std	Y+14, r23	; 0x0e
    1692:	8f 87       	std	Y+15, r24	; 0x0f
    1694:	98 8b       	std	Y+16, r25	; 0x10
    1696:	6d 85       	ldd	r22, Y+13	; 0x0d
    1698:	7e 85       	ldd	r23, Y+14	; 0x0e
    169a:	8f 85       	ldd	r24, Y+15	; 0x0f
    169c:	98 89       	ldd	r25, Y+16	; 0x10
    169e:	0e 94 e5 0f 	call	0x1fca	; 0x1fca <__divsf3>
    16a2:	2d ec       	ldi	r18, 0xCD	; 205
    16a4:	3c ec       	ldi	r19, 0xCC	; 204
    16a6:	4c e4       	ldi	r20, 0x4C	; 76
    16a8:	5e e3       	ldi	r21, 0x3E	; 62
    16aa:	6d 87       	std	Y+13, r22	; 0x0d
    16ac:	7e 87       	std	Y+14, r23	; 0x0e
    16ae:	8f 87       	std	Y+15, r24	; 0x0f
    16b0:	98 8b       	std	Y+16, r25	; 0x10
    16b2:	6d 85       	ldd	r22, Y+13	; 0x0d
    16b4:	7e 85       	ldd	r23, Y+14	; 0x0e
    16b6:	8f 85       	ldd	r24, Y+15	; 0x0f
    16b8:	98 89       	ldd	r25, Y+16	; 0x10
    16ba:	0e 94 44 11 	call	0x2288	; 0x2288 <__mulsf3>
    16be:	e6 2e       	mov	r14, r22
    16c0:	f7 2e       	mov	r15, r23
    16c2:	08 2f       	mov	r16, r24
    16c4:	19 2f       	mov	r17, r25
    16c6:	2d ec       	ldi	r18, 0xCD	; 205
    16c8:	3c ec       	ldi	r19, 0xCC	; 204
    16ca:	4c e4       	ldi	r20, 0x4C	; 76
    16cc:	5f e3       	ldi	r21, 0x3F	; 63
    16ce:	60 91 38 02 	lds	r22, 0x0238	; 0x800238 <gyro_yaw_input>
    16d2:	70 91 39 02 	lds	r23, 0x0239	; 0x800239 <gyro_yaw_input+0x1>
    16d6:	80 91 3a 02 	lds	r24, 0x023A	; 0x80023a <gyro_yaw_input+0x2>
    16da:	90 91 3b 02 	lds	r25, 0x023B	; 0x80023b <gyro_yaw_input+0x3>
    16de:	0e 94 44 11 	call	0x2288	; 0x2288 <__mulsf3>
    16e2:	26 2f       	mov	r18, r22
    16e4:	37 2f       	mov	r19, r23
    16e6:	48 2f       	mov	r20, r24
    16e8:	59 2f       	mov	r21, r25
    16ea:	ed 86       	std	Y+13, r14	; 0x0d
    16ec:	fe 86       	std	Y+14, r15	; 0x0e
    16ee:	0f 87       	std	Y+15, r16	; 0x0f
    16f0:	18 8b       	std	Y+16, r17	; 0x10
    16f2:	6d 85       	ldd	r22, Y+13	; 0x0d
    16f4:	7e 85       	ldd	r23, Y+14	; 0x0e
    16f6:	8f 85       	ldd	r24, Y+15	; 0x0f
    16f8:	98 89       	ldd	r25, Y+16	; 0x10
    16fa:	0e 94 74 0f 	call	0x1ee8	; 0x1ee8 <__addsf3>
    16fe:	60 93 38 02 	sts	0x0238, r22	; 0x800238 <gyro_yaw_input>
    1702:	70 93 39 02 	sts	0x0239, r23	; 0x800239 <gyro_yaw_input+0x1>
    1706:	80 93 3a 02 	sts	0x023A, r24	; 0x80023a <gyro_yaw_input+0x2>
    170a:	90 93 3b 02 	sts	0x023B, r25	; 0x80023b <gyro_yaw_input+0x3>
    170e:	00 91 f9 01 	lds	r16, 0x01F9	; 0x8001f9 <receiver_input_channel_3>
    1712:	10 91 fa 01 	lds	r17, 0x01FA	; 0x8001fa <receiver_input_channel_3+0x1>
    1716:	0a 31       	cpi	r16, 0x1A	; 26
    1718:	34 e0       	ldi	r19, 0x04	; 4
    171a:	13 07       	cpc	r17, r19
    171c:	74 f4       	brge	.+28     	; 0x173a <main+0xa3e>
    171e:	80 91 7c 02 	lds	r24, 0x027C	; 0x80027c <receiver_input_channel_4>
    1722:	90 91 7d 02 	lds	r25, 0x027D	; 0x80027d <receiver_input_channel_4+0x1>
    1726:	8a 31       	cpi	r24, 0x1A	; 26
    1728:	94 40       	sbci	r25, 0x04	; 4
    172a:	0c f0       	brlt	.+2      	; 0x172e <main+0xa32>
    172c:	41 c1       	rjmp	.+642    	; 0x19b0 <main+0xcb4>
    172e:	81 e0       	ldi	r24, 0x01	; 1
    1730:	90 e0       	ldi	r25, 0x00	; 0
    1732:	90 93 e6 01 	sts	0x01E6, r25	; 0x8001e6 <start+0x1>
    1736:	80 93 e5 01 	sts	0x01E5, r24	; 0x8001e5 <start>
    173a:	10 92 86 02 	sts	0x0286, r1	; 0x800286 <pid_roll_setpoint>
    173e:	10 92 87 02 	sts	0x0287, r1	; 0x800287 <pid_roll_setpoint+0x1>
    1742:	10 92 88 02 	sts	0x0288, r1	; 0x800288 <pid_roll_setpoint+0x2>
    1746:	10 92 89 02 	sts	0x0289, r1	; 0x800289 <pid_roll_setpoint+0x3>
    174a:	80 91 82 02 	lds	r24, 0x0282	; 0x800282 <receiver_input_channel_1>
    174e:	90 91 83 02 	lds	r25, 0x0283	; 0x800283 <receiver_input_channel_1+0x1>
    1752:	85 3e       	cpi	r24, 0xE5	; 229
    1754:	25 e0       	ldi	r18, 0x05	; 5
    1756:	92 07       	cpc	r25, r18
    1758:	0c f4       	brge	.+2      	; 0x175c <main+0xa60>
    175a:	9a cc       	rjmp	.-1740   	; 0x1090 <main+0x394>
    175c:	84 5e       	subi	r24, 0xE4	; 228
    175e:	95 40       	sbci	r25, 0x05	; 5
    1760:	9c 01       	movw	r18, r24
    1762:	99 0f       	add	r25, r25
    1764:	44 0b       	sbc	r20, r20
    1766:	55 0b       	sbc	r21, r21
    1768:	2d 87       	std	Y+13, r18	; 0x0d
    176a:	3e 87       	std	Y+14, r19	; 0x0e
    176c:	4f 87       	std	Y+15, r20	; 0x0f
    176e:	58 8b       	std	Y+16, r21	; 0x10
    1770:	ca 01       	movw	r24, r20
    1772:	b9 01       	movw	r22, r18
    1774:	0e 94 8f 10 	call	0x211e	; 0x211e <__floatsisf>
    1778:	20 e0       	ldi	r18, 0x00	; 0
    177a:	30 e0       	ldi	r19, 0x00	; 0
    177c:	40 e4       	ldi	r20, 0x40	; 64
    177e:	50 e4       	ldi	r21, 0x40	; 64
    1780:	6d 87       	std	Y+13, r22	; 0x0d
    1782:	7e 87       	std	Y+14, r23	; 0x0e
    1784:	8f 87       	std	Y+15, r24	; 0x0f
    1786:	98 8b       	std	Y+16, r25	; 0x10
    1788:	6d 85       	ldd	r22, Y+13	; 0x0d
    178a:	7e 85       	ldd	r23, Y+14	; 0x0e
    178c:	8f 85       	ldd	r24, Y+15	; 0x0f
    178e:	98 89       	ldd	r25, Y+16	; 0x10
    1790:	0e 94 e5 0f 	call	0x1fca	; 0x1fca <__divsf3>
    1794:	60 93 86 02 	sts	0x0286, r22	; 0x800286 <pid_roll_setpoint>
    1798:	70 93 87 02 	sts	0x0287, r23	; 0x800287 <pid_roll_setpoint+0x1>
    179c:	80 93 88 02 	sts	0x0288, r24	; 0x800288 <pid_roll_setpoint+0x2>
    17a0:	90 93 89 02 	sts	0x0289, r25	; 0x800289 <pid_roll_setpoint+0x3>
    17a4:	10 92 8a 02 	sts	0x028A, r1	; 0x80028a <pid_pitch_setpoint>
    17a8:	10 92 8b 02 	sts	0x028B, r1	; 0x80028b <pid_pitch_setpoint+0x1>
    17ac:	10 92 8c 02 	sts	0x028C, r1	; 0x80028c <pid_pitch_setpoint+0x2>
    17b0:	10 92 8d 02 	sts	0x028D, r1	; 0x80028d <pid_pitch_setpoint+0x3>
    17b4:	80 91 44 02 	lds	r24, 0x0244	; 0x800244 <receiver_input_channel_2>
    17b8:	90 91 45 02 	lds	r25, 0x0245	; 0x800245 <receiver_input_channel_2+0x1>
    17bc:	85 3e       	cpi	r24, 0xE5	; 229
    17be:	35 e0       	ldi	r19, 0x05	; 5
    17c0:	93 07       	cpc	r25, r19
    17c2:	0c f4       	brge	.+2      	; 0x17c6 <main+0xaca>
    17c4:	8f cc       	rjmp	.-1762   	; 0x10e4 <main+0x3e8>
    17c6:	a1 01       	movw	r20, r2
    17c8:	48 1b       	sub	r20, r24
    17ca:	59 0b       	sbc	r21, r25
    17cc:	9a 01       	movw	r18, r20
    17ce:	55 0f       	add	r21, r21
    17d0:	44 0b       	sbc	r20, r20
    17d2:	55 0b       	sbc	r21, r21
    17d4:	2d 87       	std	Y+13, r18	; 0x0d
    17d6:	3e 87       	std	Y+14, r19	; 0x0e
    17d8:	4f 87       	std	Y+15, r20	; 0x0f
    17da:	58 8b       	std	Y+16, r21	; 0x10
    17dc:	ca 01       	movw	r24, r20
    17de:	b9 01       	movw	r22, r18
    17e0:	0e 94 8f 10 	call	0x211e	; 0x211e <__floatsisf>
    17e4:	20 e0       	ldi	r18, 0x00	; 0
    17e6:	30 e0       	ldi	r19, 0x00	; 0
    17e8:	40 e4       	ldi	r20, 0x40	; 64
    17ea:	50 e4       	ldi	r21, 0x40	; 64
    17ec:	6d 87       	std	Y+13, r22	; 0x0d
    17ee:	7e 87       	std	Y+14, r23	; 0x0e
    17f0:	8f 87       	std	Y+15, r24	; 0x0f
    17f2:	98 8b       	std	Y+16, r25	; 0x10
    17f4:	6d 85       	ldd	r22, Y+13	; 0x0d
    17f6:	7e 85       	ldd	r23, Y+14	; 0x0e
    17f8:	8f 85       	ldd	r24, Y+15	; 0x0f
    17fa:	98 89       	ldd	r25, Y+16	; 0x10
    17fc:	0e 94 e5 0f 	call	0x1fca	; 0x1fca <__divsf3>
    1800:	60 93 8a 02 	sts	0x028A, r22	; 0x80028a <pid_pitch_setpoint>
    1804:	70 93 8b 02 	sts	0x028B, r23	; 0x80028b <pid_pitch_setpoint+0x1>
    1808:	80 93 8c 02 	sts	0x028C, r24	; 0x80028c <pid_pitch_setpoint+0x2>
    180c:	90 93 8d 02 	sts	0x028D, r25	; 0x80028d <pid_pitch_setpoint+0x3>
    1810:	10 92 7e 02 	sts	0x027E, r1	; 0x80027e <pid_yaw_setpoint>
    1814:	10 92 7f 02 	sts	0x027F, r1	; 0x80027f <pid_yaw_setpoint+0x1>
    1818:	10 92 80 02 	sts	0x0280, r1	; 0x800280 <pid_yaw_setpoint+0x2>
    181c:	10 92 81 02 	sts	0x0281, r1	; 0x800281 <pid_yaw_setpoint+0x3>
    1820:	0b 31       	cpi	r16, 0x1B	; 27
    1822:	14 40       	sbci	r17, 0x04	; 4
    1824:	74 f1       	brlt	.+92     	; 0x1882 <main+0xb86>
    1826:	80 91 7c 02 	lds	r24, 0x027C	; 0x80027c <receiver_input_channel_4>
    182a:	90 91 7d 02 	lds	r25, 0x027D	; 0x80027d <receiver_input_channel_4+0x1>
    182e:	85 3e       	cpi	r24, 0xE5	; 229
    1830:	45 e0       	ldi	r20, 0x05	; 5
    1832:	94 07       	cpc	r25, r20
    1834:	0c f4       	brge	.+2      	; 0x1838 <main+0xb3c>
    1836:	82 cc       	rjmp	.-1788   	; 0x113c <main+0x440>
    1838:	d1 01       	movw	r26, r2
    183a:	a8 1b       	sub	r26, r24
    183c:	b9 0b       	sbc	r27, r25
    183e:	9d 01       	movw	r18, r26
    1840:	bb 0f       	add	r27, r27
    1842:	44 0b       	sbc	r20, r20
    1844:	55 0b       	sbc	r21, r21
    1846:	2d 87       	std	Y+13, r18	; 0x0d
    1848:	3e 87       	std	Y+14, r19	; 0x0e
    184a:	4f 87       	std	Y+15, r20	; 0x0f
    184c:	58 8b       	std	Y+16, r21	; 0x10
    184e:	ca 01       	movw	r24, r20
    1850:	b9 01       	movw	r22, r18
    1852:	0e 94 8f 10 	call	0x211e	; 0x211e <__floatsisf>
    1856:	20 e0       	ldi	r18, 0x00	; 0
    1858:	30 e0       	ldi	r19, 0x00	; 0
    185a:	40 e4       	ldi	r20, 0x40	; 64
    185c:	50 e4       	ldi	r21, 0x40	; 64
    185e:	6d 87       	std	Y+13, r22	; 0x0d
    1860:	7e 87       	std	Y+14, r23	; 0x0e
    1862:	8f 87       	std	Y+15, r24	; 0x0f
    1864:	98 8b       	std	Y+16, r25	; 0x10
    1866:	6d 85       	ldd	r22, Y+13	; 0x0d
    1868:	7e 85       	ldd	r23, Y+14	; 0x0e
    186a:	8f 85       	ldd	r24, Y+15	; 0x0f
    186c:	98 89       	ldd	r25, Y+16	; 0x10
    186e:	0e 94 e5 0f 	call	0x1fca	; 0x1fca <__divsf3>
    1872:	60 93 7e 02 	sts	0x027E, r22	; 0x80027e <pid_yaw_setpoint>
    1876:	70 93 7f 02 	sts	0x027F, r23	; 0x80027f <pid_yaw_setpoint+0x1>
    187a:	80 93 80 02 	sts	0x0280, r24	; 0x800280 <pid_yaw_setpoint+0x2>
    187e:	90 93 81 02 	sts	0x0281, r25	; 0x800281 <pid_yaw_setpoint+0x3>
    1882:	0e 94 d6 02 	call	0x5ac	; 0x5ac <calculate_pid>
    1886:	80 91 f9 01 	lds	r24, 0x01F9	; 0x8001f9 <receiver_input_channel_3>
    188a:	90 91 fa 01 	lds	r25, 0x01FA	; 0x8001fa <receiver_input_channel_3+0x1>
    188e:	90 93 37 02 	sts	0x0237, r25	; 0x800237 <throttle+0x1>
    1892:	80 93 36 02 	sts	0x0236, r24	; 0x800236 <throttle>
    1896:	20 91 e5 01 	lds	r18, 0x01E5	; 0x8001e5 <start>
    189a:	30 91 e6 01 	lds	r19, 0x01E6	; 0x8001e6 <start+0x1>
    189e:	22 30       	cpi	r18, 0x02	; 2
    18a0:	31 05       	cpc	r19, r1
    18a2:	09 f4       	brne	.+2      	; 0x18a6 <main+0xbaa>
    18a4:	77 cc       	rjmp	.-1810   	; 0x1194 <main+0x498>
    18a6:	d0 92 4b 02 	sts	0x024B, r13	; 0x80024b <esc_1+0x1>
    18aa:	c0 92 4a 02 	sts	0x024A, r12	; 0x80024a <esc_1>
    18ae:	d0 92 2d 02 	sts	0x022D, r13	; 0x80022d <esc_2+0x1>
    18b2:	c0 92 2c 02 	sts	0x022C, r12	; 0x80022c <esc_2>
    18b6:	d0 92 7b 02 	sts	0x027B, r13	; 0x80027b <esc_3+0x1>
    18ba:	c0 92 7a 02 	sts	0x027A, r12	; 0x80027a <esc_3>
    18be:	d0 92 93 02 	sts	0x0293, r13	; 0x800293 <esc_4+0x1>
    18c2:	c0 92 92 02 	sts	0x0292, r12	; 0x800292 <esc_4>
    18c6:	20 91 4a 02 	lds	r18, 0x024A	; 0x80024a <esc_1>
    18ca:	30 91 4b 02 	lds	r19, 0x024B	; 0x80024b <esc_1+0x1>
    18ce:	28 5e       	subi	r18, 0xE8	; 232
    18d0:	33 40       	sbci	r19, 0x03	; 3
    18d2:	c9 01       	movw	r24, r18
    18d4:	99 23       	and	r25, r25
    18d6:	0c f4       	brge	.+2      	; 0x18da <main+0xbde>
    18d8:	c6 cd       	rjmp	.-1140   	; 0x1466 <main+0x76a>
    18da:	95 95       	asr	r25
    18dc:	87 95       	ror	r24
    18de:	95 95       	asr	r25
    18e0:	87 95       	ror	r24
    18e2:	88 bd       	out	0x28, r24	; 40
    18e4:	20 91 2c 02 	lds	r18, 0x022C	; 0x80022c <esc_2>
    18e8:	30 91 2d 02 	lds	r19, 0x022D	; 0x80022d <esc_2+0x1>
    18ec:	28 5e       	subi	r18, 0xE8	; 232
    18ee:	33 40       	sbci	r19, 0x03	; 3
    18f0:	c9 01       	movw	r24, r18
    18f2:	99 23       	and	r25, r25
    18f4:	0c f4       	brge	.+2      	; 0x18f8 <main+0xbfc>
    18f6:	b9 cd       	rjmp	.-1166   	; 0x146a <main+0x76e>
    18f8:	95 95       	asr	r25
    18fa:	87 95       	ror	r24
    18fc:	95 95       	asr	r25
    18fe:	87 95       	ror	r24
    1900:	87 bd       	out	0x27, r24	; 39
    1902:	20 91 7a 02 	lds	r18, 0x027A	; 0x80027a <esc_3>
    1906:	30 91 7b 02 	lds	r19, 0x027B	; 0x80027b <esc_3+0x1>
    190a:	28 5e       	subi	r18, 0xE8	; 232
    190c:	33 40       	sbci	r19, 0x03	; 3
    190e:	c9 01       	movw	r24, r18
    1910:	99 23       	and	r25, r25
    1912:	0c f4       	brge	.+2      	; 0x1916 <main+0xc1a>
    1914:	ac cd       	rjmp	.-1192   	; 0x146e <main+0x772>
    1916:	95 95       	asr	r25
    1918:	87 95       	ror	r24
    191a:	95 95       	asr	r25
    191c:	87 95       	ror	r24
    191e:	a3 eb       	ldi	r26, 0xB3	; 179
    1920:	b0 e0       	ldi	r27, 0x00	; 0
    1922:	8c 93       	st	X, r24
    1924:	20 91 92 02 	lds	r18, 0x0292	; 0x800292 <esc_4>
    1928:	30 91 93 02 	lds	r19, 0x0293	; 0x800293 <esc_4+0x1>
    192c:	28 5e       	subi	r18, 0xE8	; 232
    192e:	33 40       	sbci	r19, 0x03	; 3
    1930:	c9 01       	movw	r24, r18
    1932:	99 23       	and	r25, r25
    1934:	0c f4       	brge	.+2      	; 0x1938 <main+0xc3c>
    1936:	9d cd       	rjmp	.-1222   	; 0x1472 <main+0x776>
    1938:	95 95       	asr	r25
    193a:	87 95       	ror	r24
    193c:	95 95       	asr	r25
    193e:	87 95       	ror	r24
    1940:	e4 eb       	ldi	r30, 0xB4	; 180
    1942:	f0 e0       	ldi	r31, 0x00	; 0
    1944:	80 83       	st	Z, r24
    1946:	80 91 e7 01 	lds	r24, 0x01E7	; 0x8001e7 <loop_counter>
    194a:	90 91 e8 01 	lds	r25, 0x01E8	; 0x8001e8 <loop_counter+0x1>
    194e:	01 96       	adiw	r24, 0x01	; 1
    1950:	90 93 e8 01 	sts	0x01E8, r25	; 0x8001e8 <loop_counter+0x1>
    1954:	80 93 e7 01 	sts	0x01E7, r24	; 0x8001e7 <loop_counter>
    1958:	0e 94 79 00 	call	0xf2	; 0xf2 <adc_read>
    195c:	28 2f       	mov	r18, r24
    195e:	39 2f       	mov	r19, r25
    1960:	30 93 ff 01 	sts	0x01FF, r19	; 0x8001ff <battery_voltage+0x1>
    1964:	20 93 fe 01 	sts	0x01FE, r18	; 0x8001fe <battery_voltage>
    1968:	23 3a       	cpi	r18, 0xA3	; 163
    196a:	32 40       	sbci	r19, 0x02	; 2
    196c:	0c f0       	brlt	.+2      	; 0x1970 <main+0xc74>
    196e:	83 cd       	rjmp	.-1274   	; 0x1476 <main+0x77a>
    1970:	80 91 e7 01 	lds	r24, 0x01E7	; 0x8001e7 <loop_counter>
    1974:	90 91 e8 01 	lds	r25, 0x01E8	; 0x8001e8 <loop_counter+0x1>
    1978:	68 ec       	ldi	r22, 0xC8	; 200
    197a:	70 e0       	ldi	r23, 0x00	; 0
    197c:	0e 94 0f 0f 	call	0x1e1e	; 0x1e1e <__divmodhi4>
    1980:	89 2b       	or	r24, r25
    1982:	09 f4       	brne	.+2      	; 0x1986 <main+0xc8a>
    1984:	78 cd       	rjmp	.-1296   	; 0x1476 <main+0x77a>
    1986:	85 b1       	in	r24, 0x05	; 5
    1988:	90 e2       	ldi	r25, 0x20	; 32
    198a:	89 27       	eor	r24, r25
    198c:	85 b9       	out	0x05, r24	; 5
    198e:	73 cd       	rjmp	.-1306   	; 0x1476 <main+0x77a>
    1990:	80 91 e7 01 	lds	r24, 0x01E7	; 0x8001e7 <loop_counter>
    1994:	90 91 e8 01 	lds	r25, 0x01E8	; 0x8001e8 <loop_counter+0x1>
    1998:	69 e1       	ldi	r22, 0x19	; 25
    199a:	70 e0       	ldi	r23, 0x00	; 0
    199c:	0e 94 0f 0f 	call	0x1e1e	; 0x1e1e <__divmodhi4>
    19a0:	89 2b       	or	r24, r25
    19a2:	09 f4       	brne	.+2      	; 0x19a6 <main+0xcaa>
    19a4:	6d cd       	rjmp	.-1318   	; 0x1480 <main+0x784>
    19a6:	85 b1       	in	r24, 0x05	; 5
    19a8:	90 e2       	ldi	r25, 0x20	; 32
    19aa:	89 27       	eor	r24, r25
    19ac:	85 b9       	out	0x05, r24	; 5
    19ae:	68 cd       	rjmp	.-1328   	; 0x1480 <main+0x784>
    19b0:	80 91 e5 01 	lds	r24, 0x01E5	; 0x8001e5 <start>
    19b4:	90 91 e6 01 	lds	r25, 0x01E6	; 0x8001e6 <start+0x1>
    19b8:	81 30       	cpi	r24, 0x01	; 1
    19ba:	91 05       	cpc	r25, r1
    19bc:	09 f4       	brne	.+2      	; 0x19c0 <main+0xcc4>
    19be:	1d cb       	rjmp	.-2502   	; 0xffa <main+0x2fe>
    19c0:	02 97       	sbiw	r24, 0x02	; 2
    19c2:	09 f0       	breq	.+2      	; 0x19c6 <main+0xcca>
    19c4:	ba ce       	rjmp	.-652    	; 0x173a <main+0xa3e>
    19c6:	57 cb       	rjmp	.-2386   	; 0x1076 <main+0x37a>

000019c8 <__vector_5>:
    19c8:	1f 92       	push	r1
    19ca:	1f b6       	in	r1, 0x3f	; 63
    19cc:	1f 92       	push	r1
    19ce:	11 24       	eor	r1, r1
    19d0:	2f 93       	push	r18
    19d2:	3f 93       	push	r19
    19d4:	4f 93       	push	r20
    19d6:	5f 93       	push	r21
    19d8:	6f 93       	push	r22
    19da:	7f 93       	push	r23
    19dc:	8f 93       	push	r24
    19de:	9f 93       	push	r25
    19e0:	ef 93       	push	r30
    19e2:	ff 93       	push	r31
    19e4:	4a 9b       	sbis	0x09, 2	; 9
    19e6:	2f c0       	rjmp	.+94     	; 0x1a46 <__vector_5+0x7e>
    19e8:	e4 e8       	ldi	r30, 0x84	; 132
    19ea:	f0 e0       	ldi	r31, 0x00	; 0
    19ec:	80 81       	ld	r24, Z
    19ee:	91 81       	ldd	r25, Z+1	; 0x01
    19f0:	20 91 06 02 	lds	r18, 0x0206	; 0x800206 <current_time>
    19f4:	30 91 07 02 	lds	r19, 0x0207	; 0x800207 <current_time+0x1>
    19f8:	82 1b       	sub	r24, r18
    19fa:	93 0b       	sbc	r25, r19
    19fc:	40 81       	ld	r20, Z
    19fe:	51 81       	ldd	r21, Z+1	; 0x01
    1a00:	70 e0       	ldi	r23, 0x00	; 0
    1a02:	60 e0       	ldi	r22, 0x00	; 0
    1a04:	40 93 06 02 	sts	0x0206, r20	; 0x800206 <current_time>
    1a08:	50 93 07 02 	sts	0x0207, r21	; 0x800207 <current_time+0x1>
    1a0c:	60 93 08 02 	sts	0x0208, r22	; 0x800208 <current_time+0x2>
    1a10:	70 93 09 02 	sts	0x0209, r23	; 0x800209 <current_time+0x3>
    1a14:	9c 01       	movw	r18, r24
    1a16:	29 50       	subi	r18, 0x09	; 9
    1a18:	37 40       	sbci	r19, 0x07	; 7
    1a1a:	2f 35       	cpi	r18, 0x5F	; 95
    1a1c:	49 e0       	ldi	r20, 0x09	; 9
    1a1e:	34 07       	cpc	r19, r20
    1a20:	20 f4       	brcc	.+8      	; 0x1a2a <__vector_5+0x62>
    1a22:	90 93 23 02 	sts	0x0223, r25	; 0x800223 <rc_signal+0x7>
    1a26:	80 93 22 02 	sts	0x0222, r24	; 0x800222 <rc_signal+0x6>
    1a2a:	ff 91       	pop	r31
    1a2c:	ef 91       	pop	r30
    1a2e:	9f 91       	pop	r25
    1a30:	8f 91       	pop	r24
    1a32:	7f 91       	pop	r23
    1a34:	6f 91       	pop	r22
    1a36:	5f 91       	pop	r21
    1a38:	4f 91       	pop	r20
    1a3a:	3f 91       	pop	r19
    1a3c:	2f 91       	pop	r18
    1a3e:	1f 90       	pop	r1
    1a40:	1f be       	out	0x3f, r1	; 63
    1a42:	1f 90       	pop	r1
    1a44:	18 95       	reti
    1a46:	4c 9b       	sbis	0x09, 4	; 9
    1a48:	22 c0       	rjmp	.+68     	; 0x1a8e <__vector_5+0xc6>
    1a4a:	e4 e8       	ldi	r30, 0x84	; 132
    1a4c:	f0 e0       	ldi	r31, 0x00	; 0
    1a4e:	80 81       	ld	r24, Z
    1a50:	91 81       	ldd	r25, Z+1	; 0x01
    1a52:	20 91 06 02 	lds	r18, 0x0206	; 0x800206 <current_time>
    1a56:	30 91 07 02 	lds	r19, 0x0207	; 0x800207 <current_time+0x1>
    1a5a:	82 1b       	sub	r24, r18
    1a5c:	93 0b       	sbc	r25, r19
    1a5e:	40 81       	ld	r20, Z
    1a60:	51 81       	ldd	r21, Z+1	; 0x01
    1a62:	70 e0       	ldi	r23, 0x00	; 0
    1a64:	60 e0       	ldi	r22, 0x00	; 0
    1a66:	40 93 06 02 	sts	0x0206, r20	; 0x800206 <current_time>
    1a6a:	50 93 07 02 	sts	0x0207, r21	; 0x800207 <current_time+0x1>
    1a6e:	60 93 08 02 	sts	0x0208, r22	; 0x800208 <current_time+0x2>
    1a72:	70 93 09 02 	sts	0x0209, r23	; 0x800209 <current_time+0x3>
    1a76:	9c 01       	movw	r18, r24
    1a78:	29 50       	subi	r18, 0x09	; 9
    1a7a:	37 40       	sbci	r19, 0x07	; 7
    1a7c:	2f 35       	cpi	r18, 0x5F	; 95
    1a7e:	49 e0       	ldi	r20, 0x09	; 9
    1a80:	34 07       	cpc	r19, r20
    1a82:	98 f6       	brcc	.-90     	; 0x1a2a <__vector_5+0x62>
    1a84:	90 93 25 02 	sts	0x0225, r25	; 0x800225 <rc_signal+0x9>
    1a88:	80 93 24 02 	sts	0x0224, r24	; 0x800224 <rc_signal+0x8>
    1a8c:	ce cf       	rjmp	.-100    	; 0x1a2a <__vector_5+0x62>
    1a8e:	4f 99       	sbic	0x09, 7	; 9
    1a90:	1e c0       	rjmp	.+60     	; 0x1ace <__vector_5+0x106>
    1a92:	80 91 e2 01 	lds	r24, 0x01E2	; 0x8001e2 <__data_end>
    1a96:	88 23       	and	r24, r24
    1a98:	41 f2       	breq	.-112    	; 0x1a2a <__vector_5+0x62>
    1a9a:	4f 99       	sbic	0x09, 7	; 9
    1a9c:	c6 cf       	rjmp	.-116    	; 0x1a2a <__vector_5+0x62>
    1a9e:	80 91 84 00 	lds	r24, 0x0084	; 0x800084 <__TEXT_REGION_LENGTH__+0x7e0084>
    1aa2:	90 91 85 00 	lds	r25, 0x0085	; 0x800085 <__TEXT_REGION_LENGTH__+0x7e0085>
    1aa6:	20 91 06 02 	lds	r18, 0x0206	; 0x800206 <current_time>
    1aaa:	30 91 07 02 	lds	r19, 0x0207	; 0x800207 <current_time+0x1>
    1aae:	82 1b       	sub	r24, r18
    1ab0:	93 0b       	sbc	r25, r19
    1ab2:	9c 01       	movw	r18, r24
    1ab4:	29 50       	subi	r18, 0x09	; 9
    1ab6:	37 40       	sbci	r19, 0x07	; 7
    1ab8:	2f 35       	cpi	r18, 0x5F	; 95
    1aba:	49 e0       	ldi	r20, 0x09	; 9
    1abc:	34 07       	cpc	r19, r20
    1abe:	20 f4       	brcc	.+8      	; 0x1ac8 <__vector_5+0x100>
    1ac0:	90 93 29 02 	sts	0x0229, r25	; 0x800229 <rc_signal+0xd>
    1ac4:	80 93 28 02 	sts	0x0228, r24	; 0x800228 <rc_signal+0xc>
    1ac8:	10 92 e2 01 	sts	0x01E2, r1	; 0x8001e2 <__data_end>
    1acc:	ae cf       	rjmp	.-164    	; 0x1a2a <__vector_5+0x62>
    1ace:	e4 e8       	ldi	r30, 0x84	; 132
    1ad0:	f0 e0       	ldi	r31, 0x00	; 0
    1ad2:	80 81       	ld	r24, Z
    1ad4:	91 81       	ldd	r25, Z+1	; 0x01
    1ad6:	20 91 06 02 	lds	r18, 0x0206	; 0x800206 <current_time>
    1ada:	30 91 07 02 	lds	r19, 0x0207	; 0x800207 <current_time+0x1>
    1ade:	82 1b       	sub	r24, r18
    1ae0:	93 0b       	sbc	r25, r19
    1ae2:	40 81       	ld	r20, Z
    1ae4:	51 81       	ldd	r21, Z+1	; 0x01
    1ae6:	70 e0       	ldi	r23, 0x00	; 0
    1ae8:	60 e0       	ldi	r22, 0x00	; 0
    1aea:	40 93 06 02 	sts	0x0206, r20	; 0x800206 <current_time>
    1aee:	50 93 07 02 	sts	0x0207, r21	; 0x800207 <current_time+0x1>
    1af2:	60 93 08 02 	sts	0x0208, r22	; 0x800208 <current_time+0x2>
    1af6:	70 93 09 02 	sts	0x0209, r23	; 0x800209 <current_time+0x3>
    1afa:	9c 01       	movw	r18, r24
    1afc:	29 50       	subi	r18, 0x09	; 9
    1afe:	37 40       	sbci	r19, 0x07	; 7
    1b00:	2f 35       	cpi	r18, 0x5F	; 95
    1b02:	49 e0       	ldi	r20, 0x09	; 9
    1b04:	34 07       	cpc	r19, r20
    1b06:	20 f4       	brcc	.+8      	; 0x1b10 <__vector_5+0x148>
    1b08:	90 93 27 02 	sts	0x0227, r25	; 0x800227 <rc_signal+0xb>
    1b0c:	80 93 26 02 	sts	0x0226, r24	; 0x800226 <rc_signal+0xa>
    1b10:	81 e0       	ldi	r24, 0x01	; 1
    1b12:	80 93 e2 01 	sts	0x01E2, r24	; 0x8001e2 <__data_end>
    1b16:	89 cf       	rjmp	.-238    	; 0x1a2a <__vector_5+0x62>

00001b18 <__vector_3>:
    1b18:	1f 92       	push	r1
    1b1a:	1f b6       	in	r1, 0x3f	; 63
    1b1c:	1f 92       	push	r1
    1b1e:	11 24       	eor	r1, r1
    1b20:	2f 93       	push	r18
    1b22:	3f 93       	push	r19
    1b24:	4f 93       	push	r20
    1b26:	5f 93       	push	r21
    1b28:	6f 93       	push	r22
    1b2a:	7f 93       	push	r23
    1b2c:	8f 93       	push	r24
    1b2e:	9f 93       	push	r25
    1b30:	ef 93       	push	r30
    1b32:	ff 93       	push	r31
    1b34:	19 9b       	sbis	0x03, 1	; 3
    1b36:	1a c0       	rjmp	.+52     	; 0x1b6c <__vector_3+0x54>
    1b38:	10 92 85 00 	sts	0x0085, r1	; 0x800085 <__TEXT_REGION_LENGTH__+0x7e0085>
    1b3c:	10 92 84 00 	sts	0x0084, r1	; 0x800084 <__TEXT_REGION_LENGTH__+0x7e0084>
    1b40:	10 92 06 02 	sts	0x0206, r1	; 0x800206 <current_time>
    1b44:	10 92 07 02 	sts	0x0207, r1	; 0x800207 <current_time+0x1>
    1b48:	10 92 08 02 	sts	0x0208, r1	; 0x800208 <current_time+0x2>
    1b4c:	10 92 09 02 	sts	0x0209, r1	; 0x800209 <current_time+0x3>
    1b50:	ff 91       	pop	r31
    1b52:	ef 91       	pop	r30
    1b54:	9f 91       	pop	r25
    1b56:	8f 91       	pop	r24
    1b58:	7f 91       	pop	r23
    1b5a:	6f 91       	pop	r22
    1b5c:	5f 91       	pop	r21
    1b5e:	4f 91       	pop	r20
    1b60:	3f 91       	pop	r19
    1b62:	2f 91       	pop	r18
    1b64:	1f 90       	pop	r1
    1b66:	1f be       	out	0x3f, r1	; 63
    1b68:	1f 90       	pop	r1
    1b6a:	18 95       	reti
    1b6c:	1a 9b       	sbis	0x03, 2	; 3
    1b6e:	22 c0       	rjmp	.+68     	; 0x1bb4 <__vector_3+0x9c>
    1b70:	e4 e8       	ldi	r30, 0x84	; 132
    1b72:	f0 e0       	ldi	r31, 0x00	; 0
    1b74:	80 81       	ld	r24, Z
    1b76:	91 81       	ldd	r25, Z+1	; 0x01
    1b78:	20 91 06 02 	lds	r18, 0x0206	; 0x800206 <current_time>
    1b7c:	30 91 07 02 	lds	r19, 0x0207	; 0x800207 <current_time+0x1>
    1b80:	82 1b       	sub	r24, r18
    1b82:	93 0b       	sbc	r25, r19
    1b84:	40 81       	ld	r20, Z
    1b86:	51 81       	ldd	r21, Z+1	; 0x01
    1b88:	70 e0       	ldi	r23, 0x00	; 0
    1b8a:	60 e0       	ldi	r22, 0x00	; 0
    1b8c:	40 93 06 02 	sts	0x0206, r20	; 0x800206 <current_time>
    1b90:	50 93 07 02 	sts	0x0207, r21	; 0x800207 <current_time+0x1>
    1b94:	60 93 08 02 	sts	0x0208, r22	; 0x800208 <current_time+0x2>
    1b98:	70 93 09 02 	sts	0x0209, r23	; 0x800209 <current_time+0x3>
    1b9c:	9c 01       	movw	r18, r24
    1b9e:	29 50       	subi	r18, 0x09	; 9
    1ba0:	37 40       	sbci	r19, 0x07	; 7
    1ba2:	2f 35       	cpi	r18, 0x5F	; 95
    1ba4:	49 e0       	ldi	r20, 0x09	; 9
    1ba6:	34 07       	cpc	r19, r20
    1ba8:	98 f6       	brcc	.-90     	; 0x1b50 <__vector_3+0x38>
    1baa:	90 93 1f 02 	sts	0x021F, r25	; 0x80021f <rc_signal+0x3>
    1bae:	80 93 1e 02 	sts	0x021E, r24	; 0x80021e <rc_signal+0x2>
    1bb2:	ce cf       	rjmp	.-100    	; 0x1b50 <__vector_3+0x38>
    1bb4:	1c 9b       	sbis	0x03, 4	; 3
    1bb6:	cc cf       	rjmp	.-104    	; 0x1b50 <__vector_3+0x38>
    1bb8:	e4 e8       	ldi	r30, 0x84	; 132
    1bba:	f0 e0       	ldi	r31, 0x00	; 0
    1bbc:	80 81       	ld	r24, Z
    1bbe:	91 81       	ldd	r25, Z+1	; 0x01
    1bc0:	20 91 06 02 	lds	r18, 0x0206	; 0x800206 <current_time>
    1bc4:	30 91 07 02 	lds	r19, 0x0207	; 0x800207 <current_time+0x1>
    1bc8:	82 1b       	sub	r24, r18
    1bca:	93 0b       	sbc	r25, r19
    1bcc:	40 81       	ld	r20, Z
    1bce:	51 81       	ldd	r21, Z+1	; 0x01
    1bd0:	70 e0       	ldi	r23, 0x00	; 0
    1bd2:	60 e0       	ldi	r22, 0x00	; 0
    1bd4:	40 93 06 02 	sts	0x0206, r20	; 0x800206 <current_time>
    1bd8:	50 93 07 02 	sts	0x0207, r21	; 0x800207 <current_time+0x1>
    1bdc:	60 93 08 02 	sts	0x0208, r22	; 0x800208 <current_time+0x2>
    1be0:	70 93 09 02 	sts	0x0209, r23	; 0x800209 <current_time+0x3>
    1be4:	9c 01       	movw	r18, r24
    1be6:	29 50       	subi	r18, 0x09	; 9
    1be8:	37 40       	sbci	r19, 0x07	; 7
    1bea:	2f 35       	cpi	r18, 0x5F	; 95
    1bec:	49 e0       	ldi	r20, 0x09	; 9
    1bee:	34 07       	cpc	r19, r20
    1bf0:	08 f0       	brcs	.+2      	; 0x1bf4 <__vector_3+0xdc>
    1bf2:	ae cf       	rjmp	.-164    	; 0x1b50 <__vector_3+0x38>
    1bf4:	90 93 21 02 	sts	0x0221, r25	; 0x800221 <rc_signal+0x5>
    1bf8:	80 93 20 02 	sts	0x0220, r24	; 0x800220 <rc_signal+0x4>
    1bfc:	a9 cf       	rjmp	.-174    	; 0x1b50 <__vector_3+0x38>

00001bfe <__vector_16>:
    1bfe:	8f 93       	push	r24
    1c00:	8f b7       	in	r24, 0x3f	; 63
    1c02:	8f 93       	push	r24
    1c04:	9f 93       	push	r25
    1c06:	80 91 e3 01 	lds	r24, 0x01E3	; 0x8001e3 <tick>
    1c0a:	90 91 e4 01 	lds	r25, 0x01E4	; 0x8001e4 <tick+0x1>
    1c0e:	01 96       	adiw	r24, 0x01	; 1
    1c10:	90 93 e4 01 	sts	0x01E4, r25	; 0x8001e4 <tick+0x1>
    1c14:	80 93 e3 01 	sts	0x01E3, r24	; 0x8001e3 <tick>
    1c18:	9f 91       	pop	r25
    1c1a:	8f 91       	pop	r24
    1c1c:	8f bf       	out	0x3f, r24	; 63
    1c1e:	8f 91       	pop	r24
    1c20:	18 95       	reti

00001c22 <setup_uart>:
    1c22:	87 e6       	ldi	r24, 0x67	; 103
    1c24:	80 93 c4 00 	sts	0x00C4, r24	; 0x8000c4 <__TEXT_REGION_LENGTH__+0x7e00c4>
    1c28:	10 92 c5 00 	sts	0x00C5, r1	; 0x8000c5 <__TEXT_REGION_LENGTH__+0x7e00c5>
    1c2c:	e1 ec       	ldi	r30, 0xC1	; 193
    1c2e:	f0 e0       	ldi	r31, 0x00	; 0
    1c30:	80 81       	ld	r24, Z
    1c32:	88 61       	ori	r24, 0x18	; 24
    1c34:	80 83       	st	Z, r24
    1c36:	e2 ec       	ldi	r30, 0xC2	; 194
    1c38:	f0 e0       	ldi	r31, 0x00	; 0
    1c3a:	80 81       	ld	r24, Z
    1c3c:	86 60       	ori	r24, 0x06	; 6
    1c3e:	80 83       	st	Z, r24
    1c40:	08 95       	ret

00001c42 <put_uart>:
    1c42:	e0 ec       	ldi	r30, 0xC0	; 192
    1c44:	f0 e0       	ldi	r31, 0x00	; 0
    1c46:	90 81       	ld	r25, Z
    1c48:	95 ff       	sbrs	r25, 5
    1c4a:	fd cf       	rjmp	.-6      	; 0x1c46 <put_uart+0x4>
    1c4c:	80 93 c6 00 	sts	0x00C6, r24	; 0x8000c6 <__TEXT_REGION_LENGTH__+0x7e00c6>
    1c50:	08 95       	ret

00001c52 <serial_write>:
    1c52:	0f 93       	push	r16
    1c54:	1f 93       	push	r17
    1c56:	cf 93       	push	r28
    1c58:	df 93       	push	r29
    1c5a:	c8 2f       	mov	r28, r24
    1c5c:	d9 2f       	mov	r29, r25
    1c5e:	88 81       	ld	r24, Y
    1c60:	88 23       	and	r24, r24
    1c62:	b1 f0       	breq	.+44     	; 0x1c90 <serial_write+0x3e>
    1c64:	21 96       	adiw	r28, 0x01	; 1
    1c66:	10 e0       	ldi	r17, 0x00	; 0
    1c68:	00 e0       	ldi	r16, 0x00	; 0
    1c6a:	0e 94 21 0e 	call	0x1c42	; 0x1c42 <put_uart>
    1c6e:	0f 5f       	subi	r16, 0xFF	; 255
    1c70:	1f 4f       	sbci	r17, 0xFF	; 255
    1c72:	89 91       	ld	r24, Y+
    1c74:	81 11       	cpse	r24, r1
    1c76:	f9 cf       	rjmp	.-14     	; 0x1c6a <serial_write+0x18>
    1c78:	8a e0       	ldi	r24, 0x0A	; 10
    1c7a:	0e 94 21 0e 	call	0x1c42	; 0x1c42 <put_uart>
    1c7e:	8d e0       	ldi	r24, 0x0D	; 13
    1c80:	0e 94 21 0e 	call	0x1c42	; 0x1c42 <put_uart>
    1c84:	c8 01       	movw	r24, r16
    1c86:	df 91       	pop	r29
    1c88:	cf 91       	pop	r28
    1c8a:	1f 91       	pop	r17
    1c8c:	0f 91       	pop	r16
    1c8e:	08 95       	ret
    1c90:	10 e0       	ldi	r17, 0x00	; 0
    1c92:	00 e0       	ldi	r16, 0x00	; 0
    1c94:	f1 cf       	rjmp	.-30     	; 0x1c78 <serial_write+0x26>

00001c96 <get_uart>:
    1c96:	e0 ec       	ldi	r30, 0xC0	; 192
    1c98:	f0 e0       	ldi	r31, 0x00	; 0
    1c9a:	80 81       	ld	r24, Z
    1c9c:	88 23       	and	r24, r24
    1c9e:	ec f7       	brge	.-6      	; 0x1c9a <get_uart+0x4>
    1ca0:	80 91 c6 00 	lds	r24, 0x00C6	; 0x8000c6 <__TEXT_REGION_LENGTH__+0x7e00c6>
    1ca4:	08 95       	ret

00001ca6 <put_uint>:
    1ca6:	ef 92       	push	r14
    1ca8:	ff 92       	push	r15
    1caa:	0f 93       	push	r16
    1cac:	1f 93       	push	r17
    1cae:	cf 93       	push	r28
    1cb0:	df 93       	push	r29
    1cb2:	08 2f       	mov	r16, r24
    1cb4:	19 2f       	mov	r17, r25
    1cb6:	00 31       	cpi	r16, 0x10	; 16
    1cb8:	87 e2       	ldi	r24, 0x27	; 39
    1cba:	18 07       	cpc	r17, r24
    1cbc:	b0 f4       	brcc	.+44     	; 0x1cea <put_uint+0x44>
    1cbe:	c0 e1       	ldi	r28, 0x10	; 16
    1cc0:	d7 e2       	ldi	r29, 0x27	; 39
    1cc2:	ae 01       	movw	r20, r28
    1cc4:	9e 01       	movw	r18, r28
    1cc6:	ad ec       	ldi	r26, 0xCD	; 205
    1cc8:	bc ec       	ldi	r27, 0xCC	; 204
    1cca:	0e 94 42 0f 	call	0x1e84	; 0x1e84 <__umulhisi3>
    1cce:	ec 01       	movw	r28, r24
    1cd0:	d6 95       	lsr	r29
    1cd2:	c7 95       	ror	r28
    1cd4:	d6 95       	lsr	r29
    1cd6:	c7 95       	ror	r28
    1cd8:	d6 95       	lsr	r29
    1cda:	c7 95       	ror	r28
    1cdc:	0c 17       	cp	r16, r28
    1cde:	1d 07       	cpc	r17, r29
    1ce0:	10 f5       	brcc	.+68     	; 0x1d26 <put_uint+0x80>
    1ce2:	44 36       	cpi	r20, 0x64	; 100
    1ce4:	51 05       	cpc	r21, r1
    1ce6:	68 f7       	brcc	.-38     	; 0x1cc2 <put_uint+0x1c>
    1ce8:	1e c0       	rjmp	.+60     	; 0x1d26 <put_uint+0x80>
    1cea:	c0 e1       	ldi	r28, 0x10	; 16
    1cec:	d7 e2       	ldi	r29, 0x27	; 39
    1cee:	1b c0       	rjmp	.+54     	; 0x1d26 <put_uint+0x80>
    1cf0:	c8 01       	movw	r24, r16
    1cf2:	be 01       	movw	r22, r28
    1cf4:	0e 94 fb 0e 	call	0x1df6	; 0x1df6 <__udivmodhi4>
    1cf8:	e8 2e       	mov	r14, r24
    1cfa:	f9 2e       	mov	r15, r25
    1cfc:	80 e3       	ldi	r24, 0x30	; 48
    1cfe:	86 0f       	add	r24, r22
    1d00:	0e 94 21 0e 	call	0x1c42	; 0x1c42 <put_uart>
    1d04:	0e 2d       	mov	r16, r14
    1d06:	1f 2d       	mov	r17, r15
    1d08:	c2 30       	cpi	r28, 0x02	; 2
    1d0a:	d1 05       	cpc	r29, r1
    1d0c:	98 f0       	brcs	.+38     	; 0x1d34 <put_uint+0x8e>
    1d0e:	9e 01       	movw	r18, r28
    1d10:	ad ec       	ldi	r26, 0xCD	; 205
    1d12:	bc ec       	ldi	r27, 0xCC	; 204
    1d14:	0e 94 42 0f 	call	0x1e84	; 0x1e84 <__umulhisi3>
    1d18:	ec 01       	movw	r28, r24
    1d1a:	d6 95       	lsr	r29
    1d1c:	c7 95       	ror	r28
    1d1e:	d6 95       	lsr	r29
    1d20:	c7 95       	ror	r28
    1d22:	d6 95       	lsr	r29
    1d24:	c7 95       	ror	r28
    1d26:	0c 17       	cp	r16, r28
    1d28:	1d 07       	cpc	r17, r29
    1d2a:	10 f7       	brcc	.-60     	; 0x1cf0 <put_uint+0x4a>
    1d2c:	80 e3       	ldi	r24, 0x30	; 48
    1d2e:	0e 94 21 0e 	call	0x1c42	; 0x1c42 <put_uart>
    1d32:	ea cf       	rjmp	.-44     	; 0x1d08 <put_uint+0x62>
    1d34:	df 91       	pop	r29
    1d36:	cf 91       	pop	r28
    1d38:	1f 91       	pop	r17
    1d3a:	0f 91       	pop	r16
    1d3c:	ff 90       	pop	r15
    1d3e:	ef 90       	pop	r14
    1d40:	08 95       	ret

00001d42 <put_int>:
    1d42:	ef 92       	push	r14
    1d44:	ff 92       	push	r15
    1d46:	0f 93       	push	r16
    1d48:	1f 93       	push	r17
    1d4a:	cf 93       	push	r28
    1d4c:	df 93       	push	r29
    1d4e:	08 2f       	mov	r16, r24
    1d50:	19 2f       	mov	r17, r25
    1d52:	11 23       	and	r17, r17
    1d54:	dc f0       	brlt	.+54     	; 0x1d8c <put_int+0x4a>
    1d56:	f8 01       	movw	r30, r16
    1d58:	00 31       	cpi	r16, 0x10	; 16
    1d5a:	87 e2       	ldi	r24, 0x27	; 39
    1d5c:	18 07       	cpc	r17, r24
    1d5e:	e8 f4       	brcc	.+58     	; 0x1d9a <put_int+0x58>
    1d60:	c0 e1       	ldi	r28, 0x10	; 16
    1d62:	d7 e2       	ldi	r29, 0x27	; 39
    1d64:	ae 01       	movw	r20, r28
    1d66:	9e 01       	movw	r18, r28
    1d68:	ad ec       	ldi	r26, 0xCD	; 205
    1d6a:	bc ec       	ldi	r27, 0xCC	; 204
    1d6c:	0e 94 42 0f 	call	0x1e84	; 0x1e84 <__umulhisi3>
    1d70:	ec 01       	movw	r28, r24
    1d72:	d6 95       	lsr	r29
    1d74:	c7 95       	ror	r28
    1d76:	d6 95       	lsr	r29
    1d78:	c7 95       	ror	r28
    1d7a:	d6 95       	lsr	r29
    1d7c:	c7 95       	ror	r28
    1d7e:	ec 17       	cp	r30, r28
    1d80:	fd 07       	cpc	r31, r29
    1d82:	00 f5       	brcc	.+64     	; 0x1dc4 <put_int+0x82>
    1d84:	44 36       	cpi	r20, 0x64	; 100
    1d86:	51 05       	cpc	r21, r1
    1d88:	68 f7       	brcc	.-38     	; 0x1d64 <put_int+0x22>
    1d8a:	1c c0       	rjmp	.+56     	; 0x1dc4 <put_int+0x82>
    1d8c:	8d e2       	ldi	r24, 0x2D	; 45
    1d8e:	0e 94 21 0e 	call	0x1c42	; 0x1c42 <put_uart>
    1d92:	11 95       	neg	r17
    1d94:	01 95       	neg	r16
    1d96:	11 09       	sbc	r17, r1
    1d98:	de cf       	rjmp	.-68     	; 0x1d56 <put_int+0x14>
    1d9a:	c0 e1       	ldi	r28, 0x10	; 16
    1d9c:	d7 e2       	ldi	r29, 0x27	; 39
    1d9e:	12 c0       	rjmp	.+36     	; 0x1dc4 <put_int+0x82>
    1da0:	80 e3       	ldi	r24, 0x30	; 48
    1da2:	0e 94 21 0e 	call	0x1c42	; 0x1c42 <put_uart>
    1da6:	c2 30       	cpi	r28, 0x02	; 2
    1da8:	d1 05       	cpc	r29, r1
    1daa:	e8 f0       	brcs	.+58     	; 0x1de6 <put_int+0xa4>
    1dac:	9e 01       	movw	r18, r28
    1dae:	ad ec       	ldi	r26, 0xCD	; 205
    1db0:	bc ec       	ldi	r27, 0xCC	; 204
    1db2:	0e 94 42 0f 	call	0x1e84	; 0x1e84 <__umulhisi3>
    1db6:	ec 01       	movw	r28, r24
    1db8:	d6 95       	lsr	r29
    1dba:	c7 95       	ror	r28
    1dbc:	d6 95       	lsr	r29
    1dbe:	c7 95       	ror	r28
    1dc0:	d6 95       	lsr	r29
    1dc2:	c7 95       	ror	r28
    1dc4:	80 2f       	mov	r24, r16
    1dc6:	91 2f       	mov	r25, r17
    1dc8:	0c 17       	cp	r16, r28
    1dca:	1d 07       	cpc	r17, r29
    1dcc:	48 f3       	brcs	.-46     	; 0x1da0 <put_int+0x5e>
    1dce:	be 01       	movw	r22, r28
    1dd0:	0e 94 fb 0e 	call	0x1df6	; 0x1df6 <__udivmodhi4>
    1dd4:	e8 2e       	mov	r14, r24
    1dd6:	f9 2e       	mov	r15, r25
    1dd8:	80 e3       	ldi	r24, 0x30	; 48
    1dda:	86 0f       	add	r24, r22
    1ddc:	0e 94 21 0e 	call	0x1c42	; 0x1c42 <put_uart>
    1de0:	0e 2d       	mov	r16, r14
    1de2:	1f 2d       	mov	r17, r15
    1de4:	e0 cf       	rjmp	.-64     	; 0x1da6 <put_int+0x64>
    1de6:	df 91       	pop	r29
    1de8:	cf 91       	pop	r28
    1dea:	1f 91       	pop	r17
    1dec:	0f 91       	pop	r16
    1dee:	ff 90       	pop	r15
    1df0:	ef 90       	pop	r14
    1df2:	08 95       	ret

00001df4 <put_float>:
    1df4:	08 95       	ret

00001df6 <__udivmodhi4>:
    1df6:	aa 1b       	sub	r26, r26
    1df8:	bb 1b       	sub	r27, r27
    1dfa:	51 e1       	ldi	r21, 0x11	; 17
    1dfc:	07 c0       	rjmp	.+14     	; 0x1e0c <__udivmodhi4_ep>

00001dfe <__udivmodhi4_loop>:
    1dfe:	aa 1f       	adc	r26, r26
    1e00:	bb 1f       	adc	r27, r27
    1e02:	a6 17       	cp	r26, r22
    1e04:	b7 07       	cpc	r27, r23
    1e06:	10 f0       	brcs	.+4      	; 0x1e0c <__udivmodhi4_ep>
    1e08:	a6 1b       	sub	r26, r22
    1e0a:	b7 0b       	sbc	r27, r23

00001e0c <__udivmodhi4_ep>:
    1e0c:	88 1f       	adc	r24, r24
    1e0e:	99 1f       	adc	r25, r25
    1e10:	5a 95       	dec	r21
    1e12:	a9 f7       	brne	.-22     	; 0x1dfe <__udivmodhi4_loop>
    1e14:	80 95       	com	r24
    1e16:	90 95       	com	r25
    1e18:	bc 01       	movw	r22, r24
    1e1a:	cd 01       	movw	r24, r26
    1e1c:	08 95       	ret

00001e1e <__divmodhi4>:
    1e1e:	97 fb       	bst	r25, 7
    1e20:	07 2e       	mov	r0, r23
    1e22:	16 f4       	brtc	.+4      	; 0x1e28 <__divmodhi4+0xa>
    1e24:	00 94       	com	r0
    1e26:	07 d0       	rcall	.+14     	; 0x1e36 <__divmodhi4_neg1>
    1e28:	77 fd       	sbrc	r23, 7
    1e2a:	09 d0       	rcall	.+18     	; 0x1e3e <__divmodhi4_neg2>
    1e2c:	0e 94 fb 0e 	call	0x1df6	; 0x1df6 <__udivmodhi4>
    1e30:	07 fc       	sbrc	r0, 7
    1e32:	05 d0       	rcall	.+10     	; 0x1e3e <__divmodhi4_neg2>
    1e34:	3e f4       	brtc	.+14     	; 0x1e44 <__divmodhi4_exit>

00001e36 <__divmodhi4_neg1>:
    1e36:	90 95       	com	r25
    1e38:	81 95       	neg	r24
    1e3a:	9f 4f       	sbci	r25, 0xFF	; 255
    1e3c:	08 95       	ret

00001e3e <__divmodhi4_neg2>:
    1e3e:	70 95       	com	r23
    1e40:	61 95       	neg	r22
    1e42:	7f 4f       	sbci	r23, 0xFF	; 255

00001e44 <__divmodhi4_exit>:
    1e44:	08 95       	ret

00001e46 <__divmodsi4>:
    1e46:	05 2e       	mov	r0, r21
    1e48:	97 fb       	bst	r25, 7
    1e4a:	1e f4       	brtc	.+6      	; 0x1e52 <__divmodsi4+0xc>
    1e4c:	00 94       	com	r0
    1e4e:	0e 94 3a 0f 	call	0x1e74	; 0x1e74 <__negsi2>
    1e52:	57 fd       	sbrc	r21, 7
    1e54:	07 d0       	rcall	.+14     	; 0x1e64 <__divmodsi4_neg2>
    1e56:	0e 94 51 0f 	call	0x1ea2	; 0x1ea2 <__udivmodsi4>
    1e5a:	07 fc       	sbrc	r0, 7
    1e5c:	03 d0       	rcall	.+6      	; 0x1e64 <__divmodsi4_neg2>
    1e5e:	4e f4       	brtc	.+18     	; 0x1e72 <__divmodsi4_exit>
    1e60:	0c 94 3a 0f 	jmp	0x1e74	; 0x1e74 <__negsi2>

00001e64 <__divmodsi4_neg2>:
    1e64:	50 95       	com	r21
    1e66:	40 95       	com	r20
    1e68:	30 95       	com	r19
    1e6a:	21 95       	neg	r18
    1e6c:	3f 4f       	sbci	r19, 0xFF	; 255
    1e6e:	4f 4f       	sbci	r20, 0xFF	; 255
    1e70:	5f 4f       	sbci	r21, 0xFF	; 255

00001e72 <__divmodsi4_exit>:
    1e72:	08 95       	ret

00001e74 <__negsi2>:
    1e74:	90 95       	com	r25
    1e76:	80 95       	com	r24
    1e78:	70 95       	com	r23
    1e7a:	61 95       	neg	r22
    1e7c:	7f 4f       	sbci	r23, 0xFF	; 255
    1e7e:	8f 4f       	sbci	r24, 0xFF	; 255
    1e80:	9f 4f       	sbci	r25, 0xFF	; 255
    1e82:	08 95       	ret

00001e84 <__umulhisi3>:
    1e84:	a2 9f       	mul	r26, r18
    1e86:	b0 01       	movw	r22, r0
    1e88:	b3 9f       	mul	r27, r19
    1e8a:	c0 01       	movw	r24, r0
    1e8c:	a3 9f       	mul	r26, r19
    1e8e:	70 0d       	add	r23, r0
    1e90:	81 1d       	adc	r24, r1
    1e92:	11 24       	eor	r1, r1
    1e94:	91 1d       	adc	r25, r1
    1e96:	b2 9f       	mul	r27, r18
    1e98:	70 0d       	add	r23, r0
    1e9a:	81 1d       	adc	r24, r1
    1e9c:	11 24       	eor	r1, r1
    1e9e:	91 1d       	adc	r25, r1
    1ea0:	08 95       	ret

00001ea2 <__udivmodsi4>:
    1ea2:	a1 e2       	ldi	r26, 0x21	; 33
    1ea4:	1a 2e       	mov	r1, r26
    1ea6:	aa 1b       	sub	r26, r26
    1ea8:	bb 1b       	sub	r27, r27
    1eaa:	fd 01       	movw	r30, r26
    1eac:	0d c0       	rjmp	.+26     	; 0x1ec8 <__udivmodsi4_ep>

00001eae <__udivmodsi4_loop>:
    1eae:	aa 1f       	adc	r26, r26
    1eb0:	bb 1f       	adc	r27, r27
    1eb2:	ee 1f       	adc	r30, r30
    1eb4:	ff 1f       	adc	r31, r31
    1eb6:	a2 17       	cp	r26, r18
    1eb8:	b3 07       	cpc	r27, r19
    1eba:	e4 07       	cpc	r30, r20
    1ebc:	f5 07       	cpc	r31, r21
    1ebe:	20 f0       	brcs	.+8      	; 0x1ec8 <__udivmodsi4_ep>
    1ec0:	a2 1b       	sub	r26, r18
    1ec2:	b3 0b       	sbc	r27, r19
    1ec4:	e4 0b       	sbc	r30, r20
    1ec6:	f5 0b       	sbc	r31, r21

00001ec8 <__udivmodsi4_ep>:
    1ec8:	66 1f       	adc	r22, r22
    1eca:	77 1f       	adc	r23, r23
    1ecc:	88 1f       	adc	r24, r24
    1ece:	99 1f       	adc	r25, r25
    1ed0:	1a 94       	dec	r1
    1ed2:	69 f7       	brne	.-38     	; 0x1eae <__udivmodsi4_loop>
    1ed4:	60 95       	com	r22
    1ed6:	70 95       	com	r23
    1ed8:	80 95       	com	r24
    1eda:	90 95       	com	r25
    1edc:	9b 01       	movw	r18, r22
    1ede:	ac 01       	movw	r20, r24
    1ee0:	bd 01       	movw	r22, r26
    1ee2:	cf 01       	movw	r24, r30
    1ee4:	08 95       	ret

00001ee6 <__subsf3>:
    1ee6:	50 58       	subi	r21, 0x80	; 128

00001ee8 <__addsf3>:
    1ee8:	bb 27       	eor	r27, r27
    1eea:	aa 27       	eor	r26, r26
    1eec:	0e 94 8b 0f 	call	0x1f16	; 0x1f16 <__addsf3x>
    1ef0:	0c 94 05 11 	jmp	0x220a	; 0x220a <__fp_round>
    1ef4:	0e 94 f7 10 	call	0x21ee	; 0x21ee <__fp_pscA>
    1ef8:	38 f0       	brcs	.+14     	; 0x1f08 <__addsf3+0x20>
    1efa:	0e 94 fe 10 	call	0x21fc	; 0x21fc <__fp_pscB>
    1efe:	20 f0       	brcs	.+8      	; 0x1f08 <__addsf3+0x20>
    1f00:	39 f4       	brne	.+14     	; 0x1f10 <__addsf3+0x28>
    1f02:	9f 3f       	cpi	r25, 0xFF	; 255
    1f04:	19 f4       	brne	.+6      	; 0x1f0c <__addsf3+0x24>
    1f06:	26 f4       	brtc	.+8      	; 0x1f10 <__addsf3+0x28>
    1f08:	0c 94 f4 10 	jmp	0x21e8	; 0x21e8 <__fp_nan>
    1f0c:	0e f4       	brtc	.+2      	; 0x1f10 <__addsf3+0x28>
    1f0e:	e0 95       	com	r30
    1f10:	e7 fb       	bst	r30, 7
    1f12:	0c 94 ee 10 	jmp	0x21dc	; 0x21dc <__fp_inf>

00001f16 <__addsf3x>:
    1f16:	e9 2f       	mov	r30, r25
    1f18:	0e 94 16 11 	call	0x222c	; 0x222c <__fp_split3>
    1f1c:	58 f3       	brcs	.-42     	; 0x1ef4 <__addsf3+0xc>
    1f1e:	ba 17       	cp	r27, r26
    1f20:	62 07       	cpc	r22, r18
    1f22:	73 07       	cpc	r23, r19
    1f24:	84 07       	cpc	r24, r20
    1f26:	95 07       	cpc	r25, r21
    1f28:	20 f0       	brcs	.+8      	; 0x1f32 <__addsf3x+0x1c>
    1f2a:	79 f4       	brne	.+30     	; 0x1f4a <__addsf3x+0x34>
    1f2c:	a6 f5       	brtc	.+104    	; 0x1f96 <__addsf3x+0x80>
    1f2e:	0c 94 38 11 	jmp	0x2270	; 0x2270 <__fp_zero>
    1f32:	0e f4       	brtc	.+2      	; 0x1f36 <__addsf3x+0x20>
    1f34:	e0 95       	com	r30
    1f36:	0b 2e       	mov	r0, r27
    1f38:	ba 2f       	mov	r27, r26
    1f3a:	a0 2d       	mov	r26, r0
    1f3c:	0b 01       	movw	r0, r22
    1f3e:	b9 01       	movw	r22, r18
    1f40:	90 01       	movw	r18, r0
    1f42:	0c 01       	movw	r0, r24
    1f44:	ca 01       	movw	r24, r20
    1f46:	a0 01       	movw	r20, r0
    1f48:	11 24       	eor	r1, r1
    1f4a:	ff 27       	eor	r31, r31
    1f4c:	59 1b       	sub	r21, r25
    1f4e:	99 f0       	breq	.+38     	; 0x1f76 <__addsf3x+0x60>
    1f50:	59 3f       	cpi	r21, 0xF9	; 249
    1f52:	50 f4       	brcc	.+20     	; 0x1f68 <__addsf3x+0x52>
    1f54:	50 3e       	cpi	r21, 0xE0	; 224
    1f56:	68 f1       	brcs	.+90     	; 0x1fb2 <__addsf3x+0x9c>
    1f58:	1a 16       	cp	r1, r26
    1f5a:	f0 40       	sbci	r31, 0x00	; 0
    1f5c:	a2 2f       	mov	r26, r18
    1f5e:	23 2f       	mov	r18, r19
    1f60:	34 2f       	mov	r19, r20
    1f62:	44 27       	eor	r20, r20
    1f64:	58 5f       	subi	r21, 0xF8	; 248
    1f66:	f3 cf       	rjmp	.-26     	; 0x1f4e <__addsf3x+0x38>
    1f68:	46 95       	lsr	r20
    1f6a:	37 95       	ror	r19
    1f6c:	27 95       	ror	r18
    1f6e:	a7 95       	ror	r26
    1f70:	f0 40       	sbci	r31, 0x00	; 0
    1f72:	53 95       	inc	r21
    1f74:	c9 f7       	brne	.-14     	; 0x1f68 <__addsf3x+0x52>
    1f76:	7e f4       	brtc	.+30     	; 0x1f96 <__addsf3x+0x80>
    1f78:	1f 16       	cp	r1, r31
    1f7a:	ba 0b       	sbc	r27, r26
    1f7c:	62 0b       	sbc	r22, r18
    1f7e:	73 0b       	sbc	r23, r19
    1f80:	84 0b       	sbc	r24, r20
    1f82:	ba f0       	brmi	.+46     	; 0x1fb2 <__addsf3x+0x9c>
    1f84:	91 50       	subi	r25, 0x01	; 1
    1f86:	a1 f0       	breq	.+40     	; 0x1fb0 <__addsf3x+0x9a>
    1f88:	ff 0f       	add	r31, r31
    1f8a:	bb 1f       	adc	r27, r27
    1f8c:	66 1f       	adc	r22, r22
    1f8e:	77 1f       	adc	r23, r23
    1f90:	88 1f       	adc	r24, r24
    1f92:	c2 f7       	brpl	.-16     	; 0x1f84 <__addsf3x+0x6e>
    1f94:	0e c0       	rjmp	.+28     	; 0x1fb2 <__addsf3x+0x9c>
    1f96:	ba 0f       	add	r27, r26
    1f98:	62 1f       	adc	r22, r18
    1f9a:	73 1f       	adc	r23, r19
    1f9c:	84 1f       	adc	r24, r20
    1f9e:	48 f4       	brcc	.+18     	; 0x1fb2 <__addsf3x+0x9c>
    1fa0:	87 95       	ror	r24
    1fa2:	77 95       	ror	r23
    1fa4:	67 95       	ror	r22
    1fa6:	b7 95       	ror	r27
    1fa8:	f7 95       	ror	r31
    1faa:	9e 3f       	cpi	r25, 0xFE	; 254
    1fac:	08 f0       	brcs	.+2      	; 0x1fb0 <__addsf3x+0x9a>
    1fae:	b0 cf       	rjmp	.-160    	; 0x1f10 <__addsf3+0x28>
    1fb0:	93 95       	inc	r25
    1fb2:	88 0f       	add	r24, r24
    1fb4:	08 f0       	brcs	.+2      	; 0x1fb8 <__addsf3x+0xa2>
    1fb6:	99 27       	eor	r25, r25
    1fb8:	ee 0f       	add	r30, r30
    1fba:	97 95       	ror	r25
    1fbc:	87 95       	ror	r24
    1fbe:	08 95       	ret

00001fc0 <__cmpsf2>:
    1fc0:	0e 94 ca 10 	call	0x2194	; 0x2194 <__fp_cmp>
    1fc4:	08 f4       	brcc	.+2      	; 0x1fc8 <__cmpsf2+0x8>
    1fc6:	81 e0       	ldi	r24, 0x01	; 1
    1fc8:	08 95       	ret

00001fca <__divsf3>:
    1fca:	0e 94 f9 0f 	call	0x1ff2	; 0x1ff2 <__divsf3x>
    1fce:	0c 94 05 11 	jmp	0x220a	; 0x220a <__fp_round>
    1fd2:	0e 94 fe 10 	call	0x21fc	; 0x21fc <__fp_pscB>
    1fd6:	58 f0       	brcs	.+22     	; 0x1fee <__divsf3+0x24>
    1fd8:	0e 94 f7 10 	call	0x21ee	; 0x21ee <__fp_pscA>
    1fdc:	40 f0       	brcs	.+16     	; 0x1fee <__divsf3+0x24>
    1fde:	29 f4       	brne	.+10     	; 0x1fea <__divsf3+0x20>
    1fe0:	5f 3f       	cpi	r21, 0xFF	; 255
    1fe2:	29 f0       	breq	.+10     	; 0x1fee <__divsf3+0x24>
    1fe4:	0c 94 ee 10 	jmp	0x21dc	; 0x21dc <__fp_inf>
    1fe8:	51 11       	cpse	r21, r1
    1fea:	0c 94 39 11 	jmp	0x2272	; 0x2272 <__fp_szero>
    1fee:	0c 94 f4 10 	jmp	0x21e8	; 0x21e8 <__fp_nan>

00001ff2 <__divsf3x>:
    1ff2:	0e 94 16 11 	call	0x222c	; 0x222c <__fp_split3>
    1ff6:	68 f3       	brcs	.-38     	; 0x1fd2 <__divsf3+0x8>

00001ff8 <__divsf3_pse>:
    1ff8:	99 23       	and	r25, r25
    1ffa:	b1 f3       	breq	.-20     	; 0x1fe8 <__divsf3+0x1e>
    1ffc:	55 23       	and	r21, r21
    1ffe:	91 f3       	breq	.-28     	; 0x1fe4 <__divsf3+0x1a>
    2000:	95 1b       	sub	r25, r21
    2002:	55 0b       	sbc	r21, r21
    2004:	bb 27       	eor	r27, r27
    2006:	aa 27       	eor	r26, r26
    2008:	62 17       	cp	r22, r18
    200a:	73 07       	cpc	r23, r19
    200c:	84 07       	cpc	r24, r20
    200e:	38 f0       	brcs	.+14     	; 0x201e <__divsf3_pse+0x26>
    2010:	9f 5f       	subi	r25, 0xFF	; 255
    2012:	5f 4f       	sbci	r21, 0xFF	; 255
    2014:	22 0f       	add	r18, r18
    2016:	33 1f       	adc	r19, r19
    2018:	44 1f       	adc	r20, r20
    201a:	aa 1f       	adc	r26, r26
    201c:	a9 f3       	breq	.-22     	; 0x2008 <__divsf3_pse+0x10>
    201e:	35 d0       	rcall	.+106    	; 0x208a <__divsf3_pse+0x92>
    2020:	0e 2e       	mov	r0, r30
    2022:	3a f0       	brmi	.+14     	; 0x2032 <__divsf3_pse+0x3a>
    2024:	e0 e8       	ldi	r30, 0x80	; 128
    2026:	32 d0       	rcall	.+100    	; 0x208c <__divsf3_pse+0x94>
    2028:	91 50       	subi	r25, 0x01	; 1
    202a:	50 40       	sbci	r21, 0x00	; 0
    202c:	e6 95       	lsr	r30
    202e:	00 1c       	adc	r0, r0
    2030:	ca f7       	brpl	.-14     	; 0x2024 <__divsf3_pse+0x2c>
    2032:	2b d0       	rcall	.+86     	; 0x208a <__divsf3_pse+0x92>
    2034:	fe 2f       	mov	r31, r30
    2036:	29 d0       	rcall	.+82     	; 0x208a <__divsf3_pse+0x92>
    2038:	66 0f       	add	r22, r22
    203a:	77 1f       	adc	r23, r23
    203c:	88 1f       	adc	r24, r24
    203e:	bb 1f       	adc	r27, r27
    2040:	26 17       	cp	r18, r22
    2042:	37 07       	cpc	r19, r23
    2044:	48 07       	cpc	r20, r24
    2046:	ab 07       	cpc	r26, r27
    2048:	b0 e8       	ldi	r27, 0x80	; 128
    204a:	09 f0       	breq	.+2      	; 0x204e <__divsf3_pse+0x56>
    204c:	bb 0b       	sbc	r27, r27
    204e:	80 2d       	mov	r24, r0
    2050:	bf 01       	movw	r22, r30
    2052:	ff 27       	eor	r31, r31
    2054:	93 58       	subi	r25, 0x83	; 131
    2056:	5f 4f       	sbci	r21, 0xFF	; 255
    2058:	3a f0       	brmi	.+14     	; 0x2068 <__divsf3_pse+0x70>
    205a:	9e 3f       	cpi	r25, 0xFE	; 254
    205c:	51 05       	cpc	r21, r1
    205e:	78 f0       	brcs	.+30     	; 0x207e <__divsf3_pse+0x86>
    2060:	0c 94 ee 10 	jmp	0x21dc	; 0x21dc <__fp_inf>
    2064:	0c 94 39 11 	jmp	0x2272	; 0x2272 <__fp_szero>
    2068:	5f 3f       	cpi	r21, 0xFF	; 255
    206a:	e4 f3       	brlt	.-8      	; 0x2064 <__divsf3_pse+0x6c>
    206c:	98 3e       	cpi	r25, 0xE8	; 232
    206e:	d4 f3       	brlt	.-12     	; 0x2064 <__divsf3_pse+0x6c>
    2070:	86 95       	lsr	r24
    2072:	77 95       	ror	r23
    2074:	67 95       	ror	r22
    2076:	b7 95       	ror	r27
    2078:	f7 95       	ror	r31
    207a:	9f 5f       	subi	r25, 0xFF	; 255
    207c:	c9 f7       	brne	.-14     	; 0x2070 <__divsf3_pse+0x78>
    207e:	88 0f       	add	r24, r24
    2080:	91 1d       	adc	r25, r1
    2082:	96 95       	lsr	r25
    2084:	87 95       	ror	r24
    2086:	97 f9       	bld	r25, 7
    2088:	08 95       	ret
    208a:	e1 e0       	ldi	r30, 0x01	; 1
    208c:	66 0f       	add	r22, r22
    208e:	77 1f       	adc	r23, r23
    2090:	88 1f       	adc	r24, r24
    2092:	bb 1f       	adc	r27, r27
    2094:	62 17       	cp	r22, r18
    2096:	73 07       	cpc	r23, r19
    2098:	84 07       	cpc	r24, r20
    209a:	ba 07       	cpc	r27, r26
    209c:	20 f0       	brcs	.+8      	; 0x20a6 <__divsf3_pse+0xae>
    209e:	62 1b       	sub	r22, r18
    20a0:	73 0b       	sbc	r23, r19
    20a2:	84 0b       	sbc	r24, r20
    20a4:	ba 0b       	sbc	r27, r26
    20a6:	ee 1f       	adc	r30, r30
    20a8:	88 f7       	brcc	.-30     	; 0x208c <__divsf3_pse+0x94>
    20aa:	e0 95       	com	r30
    20ac:	08 95       	ret

000020ae <__fixsfsi>:
    20ae:	0e 94 5e 10 	call	0x20bc	; 0x20bc <__fixunssfsi>
    20b2:	68 94       	set
    20b4:	b1 11       	cpse	r27, r1
    20b6:	0c 94 39 11 	jmp	0x2272	; 0x2272 <__fp_szero>
    20ba:	08 95       	ret

000020bc <__fixunssfsi>:
    20bc:	0e 94 1e 11 	call	0x223c	; 0x223c <__fp_splitA>
    20c0:	88 f0       	brcs	.+34     	; 0x20e4 <__fixunssfsi+0x28>
    20c2:	9f 57       	subi	r25, 0x7F	; 127
    20c4:	98 f0       	brcs	.+38     	; 0x20ec <__fixunssfsi+0x30>
    20c6:	b9 2f       	mov	r27, r25
    20c8:	99 27       	eor	r25, r25
    20ca:	b7 51       	subi	r27, 0x17	; 23
    20cc:	b0 f0       	brcs	.+44     	; 0x20fa <__fixunssfsi+0x3e>
    20ce:	e1 f0       	breq	.+56     	; 0x2108 <__fixunssfsi+0x4c>
    20d0:	66 0f       	add	r22, r22
    20d2:	77 1f       	adc	r23, r23
    20d4:	88 1f       	adc	r24, r24
    20d6:	99 1f       	adc	r25, r25
    20d8:	1a f0       	brmi	.+6      	; 0x20e0 <__fixunssfsi+0x24>
    20da:	ba 95       	dec	r27
    20dc:	c9 f7       	brne	.-14     	; 0x20d0 <__fixunssfsi+0x14>
    20de:	14 c0       	rjmp	.+40     	; 0x2108 <__fixunssfsi+0x4c>
    20e0:	b1 30       	cpi	r27, 0x01	; 1
    20e2:	91 f0       	breq	.+36     	; 0x2108 <__fixunssfsi+0x4c>
    20e4:	0e 94 38 11 	call	0x2270	; 0x2270 <__fp_zero>
    20e8:	b1 e0       	ldi	r27, 0x01	; 1
    20ea:	08 95       	ret
    20ec:	0c 94 38 11 	jmp	0x2270	; 0x2270 <__fp_zero>
    20f0:	67 2f       	mov	r22, r23
    20f2:	78 2f       	mov	r23, r24
    20f4:	88 27       	eor	r24, r24
    20f6:	b8 5f       	subi	r27, 0xF8	; 248
    20f8:	39 f0       	breq	.+14     	; 0x2108 <__fixunssfsi+0x4c>
    20fa:	b9 3f       	cpi	r27, 0xF9	; 249
    20fc:	cc f3       	brlt	.-14     	; 0x20f0 <__fixunssfsi+0x34>
    20fe:	86 95       	lsr	r24
    2100:	77 95       	ror	r23
    2102:	67 95       	ror	r22
    2104:	b3 95       	inc	r27
    2106:	d9 f7       	brne	.-10     	; 0x20fe <__fixunssfsi+0x42>
    2108:	3e f4       	brtc	.+14     	; 0x2118 <__fixunssfsi+0x5c>
    210a:	90 95       	com	r25
    210c:	80 95       	com	r24
    210e:	70 95       	com	r23
    2110:	61 95       	neg	r22
    2112:	7f 4f       	sbci	r23, 0xFF	; 255
    2114:	8f 4f       	sbci	r24, 0xFF	; 255
    2116:	9f 4f       	sbci	r25, 0xFF	; 255
    2118:	08 95       	ret

0000211a <__floatunsisf>:
    211a:	e8 94       	clt
    211c:	09 c0       	rjmp	.+18     	; 0x2130 <__floatsisf+0x12>

0000211e <__floatsisf>:
    211e:	97 fb       	bst	r25, 7
    2120:	3e f4       	brtc	.+14     	; 0x2130 <__floatsisf+0x12>
    2122:	90 95       	com	r25
    2124:	80 95       	com	r24
    2126:	70 95       	com	r23
    2128:	61 95       	neg	r22
    212a:	7f 4f       	sbci	r23, 0xFF	; 255
    212c:	8f 4f       	sbci	r24, 0xFF	; 255
    212e:	9f 4f       	sbci	r25, 0xFF	; 255
    2130:	99 23       	and	r25, r25
    2132:	a9 f0       	breq	.+42     	; 0x215e <__floatsisf+0x40>
    2134:	f9 2f       	mov	r31, r25
    2136:	96 e9       	ldi	r25, 0x96	; 150
    2138:	bb 27       	eor	r27, r27
    213a:	93 95       	inc	r25
    213c:	f6 95       	lsr	r31
    213e:	87 95       	ror	r24
    2140:	77 95       	ror	r23
    2142:	67 95       	ror	r22
    2144:	b7 95       	ror	r27
    2146:	f1 11       	cpse	r31, r1
    2148:	f8 cf       	rjmp	.-16     	; 0x213a <__floatsisf+0x1c>
    214a:	fa f4       	brpl	.+62     	; 0x218a <__floatsisf+0x6c>
    214c:	bb 0f       	add	r27, r27
    214e:	11 f4       	brne	.+4      	; 0x2154 <__floatsisf+0x36>
    2150:	60 ff       	sbrs	r22, 0
    2152:	1b c0       	rjmp	.+54     	; 0x218a <__floatsisf+0x6c>
    2154:	6f 5f       	subi	r22, 0xFF	; 255
    2156:	7f 4f       	sbci	r23, 0xFF	; 255
    2158:	8f 4f       	sbci	r24, 0xFF	; 255
    215a:	9f 4f       	sbci	r25, 0xFF	; 255
    215c:	16 c0       	rjmp	.+44     	; 0x218a <__floatsisf+0x6c>
    215e:	88 23       	and	r24, r24
    2160:	11 f0       	breq	.+4      	; 0x2166 <__floatsisf+0x48>
    2162:	96 e9       	ldi	r25, 0x96	; 150
    2164:	11 c0       	rjmp	.+34     	; 0x2188 <__floatsisf+0x6a>
    2166:	77 23       	and	r23, r23
    2168:	21 f0       	breq	.+8      	; 0x2172 <__floatsisf+0x54>
    216a:	9e e8       	ldi	r25, 0x8E	; 142
    216c:	87 2f       	mov	r24, r23
    216e:	76 2f       	mov	r23, r22
    2170:	05 c0       	rjmp	.+10     	; 0x217c <__floatsisf+0x5e>
    2172:	66 23       	and	r22, r22
    2174:	71 f0       	breq	.+28     	; 0x2192 <__floatsisf+0x74>
    2176:	96 e8       	ldi	r25, 0x86	; 134
    2178:	86 2f       	mov	r24, r22
    217a:	70 e0       	ldi	r23, 0x00	; 0
    217c:	60 e0       	ldi	r22, 0x00	; 0
    217e:	2a f0       	brmi	.+10     	; 0x218a <__floatsisf+0x6c>
    2180:	9a 95       	dec	r25
    2182:	66 0f       	add	r22, r22
    2184:	77 1f       	adc	r23, r23
    2186:	88 1f       	adc	r24, r24
    2188:	da f7       	brpl	.-10     	; 0x2180 <__floatsisf+0x62>
    218a:	88 0f       	add	r24, r24
    218c:	96 95       	lsr	r25
    218e:	87 95       	ror	r24
    2190:	97 f9       	bld	r25, 7
    2192:	08 95       	ret

00002194 <__fp_cmp>:
    2194:	99 0f       	add	r25, r25
    2196:	00 08       	sbc	r0, r0
    2198:	55 0f       	add	r21, r21
    219a:	aa 0b       	sbc	r26, r26
    219c:	e0 e8       	ldi	r30, 0x80	; 128
    219e:	fe ef       	ldi	r31, 0xFE	; 254
    21a0:	16 16       	cp	r1, r22
    21a2:	17 06       	cpc	r1, r23
    21a4:	e8 07       	cpc	r30, r24
    21a6:	f9 07       	cpc	r31, r25
    21a8:	c0 f0       	brcs	.+48     	; 0x21da <__fp_cmp+0x46>
    21aa:	12 16       	cp	r1, r18
    21ac:	13 06       	cpc	r1, r19
    21ae:	e4 07       	cpc	r30, r20
    21b0:	f5 07       	cpc	r31, r21
    21b2:	98 f0       	brcs	.+38     	; 0x21da <__fp_cmp+0x46>
    21b4:	62 1b       	sub	r22, r18
    21b6:	73 0b       	sbc	r23, r19
    21b8:	84 0b       	sbc	r24, r20
    21ba:	95 0b       	sbc	r25, r21
    21bc:	39 f4       	brne	.+14     	; 0x21cc <__fp_cmp+0x38>
    21be:	0a 26       	eor	r0, r26
    21c0:	61 f0       	breq	.+24     	; 0x21da <__fp_cmp+0x46>
    21c2:	23 2b       	or	r18, r19
    21c4:	24 2b       	or	r18, r20
    21c6:	25 2b       	or	r18, r21
    21c8:	21 f4       	brne	.+8      	; 0x21d2 <__fp_cmp+0x3e>
    21ca:	08 95       	ret
    21cc:	0a 26       	eor	r0, r26
    21ce:	09 f4       	brne	.+2      	; 0x21d2 <__fp_cmp+0x3e>
    21d0:	a1 40       	sbci	r26, 0x01	; 1
    21d2:	a6 95       	lsr	r26
    21d4:	8f ef       	ldi	r24, 0xFF	; 255
    21d6:	81 1d       	adc	r24, r1
    21d8:	81 1d       	adc	r24, r1
    21da:	08 95       	ret

000021dc <__fp_inf>:
    21dc:	97 f9       	bld	r25, 7
    21de:	9f 67       	ori	r25, 0x7F	; 127
    21e0:	80 e8       	ldi	r24, 0x80	; 128
    21e2:	70 e0       	ldi	r23, 0x00	; 0
    21e4:	60 e0       	ldi	r22, 0x00	; 0
    21e6:	08 95       	ret

000021e8 <__fp_nan>:
    21e8:	9f ef       	ldi	r25, 0xFF	; 255
    21ea:	80 ec       	ldi	r24, 0xC0	; 192
    21ec:	08 95       	ret

000021ee <__fp_pscA>:
    21ee:	00 24       	eor	r0, r0
    21f0:	0a 94       	dec	r0
    21f2:	16 16       	cp	r1, r22
    21f4:	17 06       	cpc	r1, r23
    21f6:	18 06       	cpc	r1, r24
    21f8:	09 06       	cpc	r0, r25
    21fa:	08 95       	ret

000021fc <__fp_pscB>:
    21fc:	00 24       	eor	r0, r0
    21fe:	0a 94       	dec	r0
    2200:	12 16       	cp	r1, r18
    2202:	13 06       	cpc	r1, r19
    2204:	14 06       	cpc	r1, r20
    2206:	05 06       	cpc	r0, r21
    2208:	08 95       	ret

0000220a <__fp_round>:
    220a:	09 2e       	mov	r0, r25
    220c:	03 94       	inc	r0
    220e:	00 0c       	add	r0, r0
    2210:	11 f4       	brne	.+4      	; 0x2216 <__fp_round+0xc>
    2212:	88 23       	and	r24, r24
    2214:	52 f0       	brmi	.+20     	; 0x222a <__fp_round+0x20>
    2216:	bb 0f       	add	r27, r27
    2218:	40 f4       	brcc	.+16     	; 0x222a <__fp_round+0x20>
    221a:	bf 2b       	or	r27, r31
    221c:	11 f4       	brne	.+4      	; 0x2222 <__fp_round+0x18>
    221e:	60 ff       	sbrs	r22, 0
    2220:	04 c0       	rjmp	.+8      	; 0x222a <__fp_round+0x20>
    2222:	6f 5f       	subi	r22, 0xFF	; 255
    2224:	7f 4f       	sbci	r23, 0xFF	; 255
    2226:	8f 4f       	sbci	r24, 0xFF	; 255
    2228:	9f 4f       	sbci	r25, 0xFF	; 255
    222a:	08 95       	ret

0000222c <__fp_split3>:
    222c:	57 fd       	sbrc	r21, 7
    222e:	90 58       	subi	r25, 0x80	; 128
    2230:	44 0f       	add	r20, r20
    2232:	55 1f       	adc	r21, r21
    2234:	59 f0       	breq	.+22     	; 0x224c <__fp_splitA+0x10>
    2236:	5f 3f       	cpi	r21, 0xFF	; 255
    2238:	71 f0       	breq	.+28     	; 0x2256 <__fp_splitA+0x1a>
    223a:	47 95       	ror	r20

0000223c <__fp_splitA>:
    223c:	88 0f       	add	r24, r24
    223e:	97 fb       	bst	r25, 7
    2240:	99 1f       	adc	r25, r25
    2242:	61 f0       	breq	.+24     	; 0x225c <__fp_splitA+0x20>
    2244:	9f 3f       	cpi	r25, 0xFF	; 255
    2246:	79 f0       	breq	.+30     	; 0x2266 <__fp_splitA+0x2a>
    2248:	87 95       	ror	r24
    224a:	08 95       	ret
    224c:	12 16       	cp	r1, r18
    224e:	13 06       	cpc	r1, r19
    2250:	14 06       	cpc	r1, r20
    2252:	55 1f       	adc	r21, r21
    2254:	f2 cf       	rjmp	.-28     	; 0x223a <__fp_split3+0xe>
    2256:	46 95       	lsr	r20
    2258:	f1 df       	rcall	.-30     	; 0x223c <__fp_splitA>
    225a:	08 c0       	rjmp	.+16     	; 0x226c <__fp_splitA+0x30>
    225c:	16 16       	cp	r1, r22
    225e:	17 06       	cpc	r1, r23
    2260:	18 06       	cpc	r1, r24
    2262:	99 1f       	adc	r25, r25
    2264:	f1 cf       	rjmp	.-30     	; 0x2248 <__fp_splitA+0xc>
    2266:	86 95       	lsr	r24
    2268:	71 05       	cpc	r23, r1
    226a:	61 05       	cpc	r22, r1
    226c:	08 94       	sec
    226e:	08 95       	ret

00002270 <__fp_zero>:
    2270:	e8 94       	clt

00002272 <__fp_szero>:
    2272:	bb 27       	eor	r27, r27
    2274:	66 27       	eor	r22, r22
    2276:	77 27       	eor	r23, r23
    2278:	cb 01       	movw	r24, r22
    227a:	97 f9       	bld	r25, 7
    227c:	08 95       	ret

0000227e <__gesf2>:
    227e:	0e 94 ca 10 	call	0x2194	; 0x2194 <__fp_cmp>
    2282:	08 f4       	brcc	.+2      	; 0x2286 <__gesf2+0x8>
    2284:	8f ef       	ldi	r24, 0xFF	; 255
    2286:	08 95       	ret

00002288 <__mulsf3>:
    2288:	0e 94 57 11 	call	0x22ae	; 0x22ae <__mulsf3x>
    228c:	0c 94 05 11 	jmp	0x220a	; 0x220a <__fp_round>
    2290:	0e 94 f7 10 	call	0x21ee	; 0x21ee <__fp_pscA>
    2294:	38 f0       	brcs	.+14     	; 0x22a4 <__mulsf3+0x1c>
    2296:	0e 94 fe 10 	call	0x21fc	; 0x21fc <__fp_pscB>
    229a:	20 f0       	brcs	.+8      	; 0x22a4 <__mulsf3+0x1c>
    229c:	95 23       	and	r25, r21
    229e:	11 f0       	breq	.+4      	; 0x22a4 <__mulsf3+0x1c>
    22a0:	0c 94 ee 10 	jmp	0x21dc	; 0x21dc <__fp_inf>
    22a4:	0c 94 f4 10 	jmp	0x21e8	; 0x21e8 <__fp_nan>
    22a8:	11 24       	eor	r1, r1
    22aa:	0c 94 39 11 	jmp	0x2272	; 0x2272 <__fp_szero>

000022ae <__mulsf3x>:
    22ae:	0e 94 16 11 	call	0x222c	; 0x222c <__fp_split3>
    22b2:	70 f3       	brcs	.-36     	; 0x2290 <__mulsf3+0x8>

000022b4 <__mulsf3_pse>:
    22b4:	95 9f       	mul	r25, r21
    22b6:	c1 f3       	breq	.-16     	; 0x22a8 <__mulsf3+0x20>
    22b8:	95 0f       	add	r25, r21
    22ba:	50 e0       	ldi	r21, 0x00	; 0
    22bc:	55 1f       	adc	r21, r21
    22be:	62 9f       	mul	r22, r18
    22c0:	f0 01       	movw	r30, r0
    22c2:	72 9f       	mul	r23, r18
    22c4:	bb 27       	eor	r27, r27
    22c6:	f0 0d       	add	r31, r0
    22c8:	b1 1d       	adc	r27, r1
    22ca:	63 9f       	mul	r22, r19
    22cc:	aa 27       	eor	r26, r26
    22ce:	f0 0d       	add	r31, r0
    22d0:	b1 1d       	adc	r27, r1
    22d2:	aa 1f       	adc	r26, r26
    22d4:	64 9f       	mul	r22, r20
    22d6:	66 27       	eor	r22, r22
    22d8:	b0 0d       	add	r27, r0
    22da:	a1 1d       	adc	r26, r1
    22dc:	66 1f       	adc	r22, r22
    22de:	82 9f       	mul	r24, r18
    22e0:	22 27       	eor	r18, r18
    22e2:	b0 0d       	add	r27, r0
    22e4:	a1 1d       	adc	r26, r1
    22e6:	62 1f       	adc	r22, r18
    22e8:	73 9f       	mul	r23, r19
    22ea:	b0 0d       	add	r27, r0
    22ec:	a1 1d       	adc	r26, r1
    22ee:	62 1f       	adc	r22, r18
    22f0:	83 9f       	mul	r24, r19
    22f2:	a0 0d       	add	r26, r0
    22f4:	61 1d       	adc	r22, r1
    22f6:	22 1f       	adc	r18, r18
    22f8:	74 9f       	mul	r23, r20
    22fa:	33 27       	eor	r19, r19
    22fc:	a0 0d       	add	r26, r0
    22fe:	61 1d       	adc	r22, r1
    2300:	23 1f       	adc	r18, r19
    2302:	84 9f       	mul	r24, r20
    2304:	60 0d       	add	r22, r0
    2306:	21 1d       	adc	r18, r1
    2308:	82 2f       	mov	r24, r18
    230a:	76 2f       	mov	r23, r22
    230c:	6a 2f       	mov	r22, r26
    230e:	11 24       	eor	r1, r1
    2310:	9f 57       	subi	r25, 0x7F	; 127
    2312:	50 40       	sbci	r21, 0x00	; 0
    2314:	9a f0       	brmi	.+38     	; 0x233c <__mulsf3_pse+0x88>
    2316:	f1 f0       	breq	.+60     	; 0x2354 <__mulsf3_pse+0xa0>
    2318:	88 23       	and	r24, r24
    231a:	4a f0       	brmi	.+18     	; 0x232e <__mulsf3_pse+0x7a>
    231c:	ee 0f       	add	r30, r30
    231e:	ff 1f       	adc	r31, r31
    2320:	bb 1f       	adc	r27, r27
    2322:	66 1f       	adc	r22, r22
    2324:	77 1f       	adc	r23, r23
    2326:	88 1f       	adc	r24, r24
    2328:	91 50       	subi	r25, 0x01	; 1
    232a:	50 40       	sbci	r21, 0x00	; 0
    232c:	a9 f7       	brne	.-22     	; 0x2318 <__mulsf3_pse+0x64>
    232e:	9e 3f       	cpi	r25, 0xFE	; 254
    2330:	51 05       	cpc	r21, r1
    2332:	80 f0       	brcs	.+32     	; 0x2354 <__mulsf3_pse+0xa0>
    2334:	0c 94 ee 10 	jmp	0x21dc	; 0x21dc <__fp_inf>
    2338:	0c 94 39 11 	jmp	0x2272	; 0x2272 <__fp_szero>
    233c:	5f 3f       	cpi	r21, 0xFF	; 255
    233e:	e4 f3       	brlt	.-8      	; 0x2338 <__mulsf3_pse+0x84>
    2340:	98 3e       	cpi	r25, 0xE8	; 232
    2342:	d4 f3       	brlt	.-12     	; 0x2338 <__mulsf3_pse+0x84>
    2344:	86 95       	lsr	r24
    2346:	77 95       	ror	r23
    2348:	67 95       	ror	r22
    234a:	b7 95       	ror	r27
    234c:	f7 95       	ror	r31
    234e:	e7 95       	ror	r30
    2350:	9f 5f       	subi	r25, 0xFF	; 255
    2352:	c1 f7       	brne	.-16     	; 0x2344 <__mulsf3_pse+0x90>
    2354:	fe 2b       	or	r31, r30
    2356:	88 0f       	add	r24, r24
    2358:	91 1d       	adc	r25, r1
    235a:	96 95       	lsr	r25
    235c:	87 95       	ror	r24
    235e:	97 f9       	bld	r25, 7
    2360:	08 95       	ret

00002362 <_exit>:
    2362:	f8 94       	cli

00002364 <__stop_program>:
    2364:	ff cf       	rjmp	.-2      	; 0x2364 <__stop_program>
